文件：Int2String.c 编译器版本 HGASM 0202 页次1


   1  0000              ; Generated by holtek-gcc v3.19, Wed May 25 14:39:47 2022
   2  0000              ; 
   3  0000              ; Configuration:
   4  0000              ;       with long instruction
   5  0000              ;       Multi-ROM, Multi-RAM
   6  0000              ;       bits_per_rom_unit:16
   7  0000              ;       with mp1
   8  0000              ;       with tbhp, address(0x9)
   9  0000              ;          Use tabrd-const
  10  0000              ;       
  11  0000              ; SFR address of long-instruction arch:
  12  0000              ;    mp0 = -1,1,0
  13  0000              ;    mp1 = 4,3,2
  14  0000              ;    mp2 = 14,13,12
  15  0000              ;    tbp = 9,7,8
  16  0000              ;    acc = 5
  17  0000              ;    pcl = 6
  18  0000              ;    status = 10
  19  0000              ;    bp = 11
  20  0000              ;    intc = 16
  21  0000              ;       
  22  0000              ;       
  23  0000              ; use 'tabrdc' instead of 'tabrd'
  24  0000              ;       
  25  0000              
  26  0000              #pragma translator "holtek-gcc 4.6.4" "3.19" "build 20130711"
  27  0000              ; Rebuild 718
  28  0000              
  29  0000              ir equ [2]
  30  0000              mp equ [3]
  31  0000              sbp equ [4]
  32  0000              acc equ [5]
  33  0000              bp equ [11]
  34  0000              tblp equ [7]
  35  0000              tbhp equ [9]
  36  0000              status equ [10]
  37  0000              c equ [10].0
  38  0000              ac equ [10].1
  39  0000              z equ [10].2
  40  0000              ov equ [10].3
  41  0000              cz equ [10].6
  42  0000              sc equ [10].7
  43  0000              intc equ [16]
  44  0000              mduwr0 equ [59h]
  45  0000              mduwr1 equ [5ah]
  46  0000              mduwr2 equ [5bh]
  47  0000              mduwr3 equ [5ch]
  48  0000              mduwr4 equ [5dh]
  49  0000              mduwr5 equ [5eh]
  50  0000              mduwrctrl equ [5fh]
  51  0000              
  52  0000              extern ra:byte
  53  0000              extern rb:byte
  54  0000              extern rc:byte
  55  0000              extern rd:byte
  56  0000              extern re:byte
  57  0000              extern rf:byte
  58  0000              extern rg:byte
  59  0000              extern rh:byte
文件：Int2String.ASM 编译器版本 HGASM 0202 页次2

  60  0000              extern _Crom2Prom:near
  61  0000              extern _Crom2PromNext:near
  62  0000              
  63  0000              RAMBANK 0 @BITDATASEC, @BITDATASEC1
  64  0000              @HCCINIT	.section 'data'
  65  0000              @HCCINIT0	.section 'data'
  66  0000              @BITDATASEC	 .section 'data'
  67  0000              @BITDATASEC1	 .section 'data'
  68  0000              
  69  0000              #pragma debug scope 1 1
  70  0000              	extern __DELAY3:near
  71  0000              	extern __DELAYX3:near
  72  0000              	extern __DELAYX6:near
  73  0000              	extern __DELAYY5:near
  74  0000              	extern __DELAYY3:near
  75  0000              	extern _builtin_holtek_delay_2:byte
  76  0000              public _Int2String
  77  0000              #pragma debug scope 2 1

   5  0000              #line 5 "c:\users\林斐\desktop\11.机械臂\Int2String.c"
   5  0000              _Int2String .section 'code'
   5  0000              _Int2String proc
   5  0000              public _Int2String_2
   5  0000  0009[           local _Int2String_2 db 9 dup(?)	; 4,5
            00
            ]
   5  0009              #pragma debug variable 11 2 _Int2String_2+0 "num"
   5  0009              #pragma debug pointer 42 7 2
   5  0009              #pragma debug pointer 42 7 2
   5  0009              #pragma debug variable 42 2 _Int2String_2+2 "str"
   8  0009              #line 8 "c:\users\林斐\desktop\11.机械臂\Int2String.c"
   8  0000  3800     R  	snz _Int2String_2[1].7
   8  0001  2800     R  	jmp _L8
  10  0002              #line 10 "c:\users\林斐\desktop\11.机械臂\Int2String.c"
  10  0002  0F00        	mov a,0
  10  0003  0280     R  	subm a,_Int2String_2[0]
  10  0004  0F00        	mov a,0
  10  0005  1280     R  	sbcm a,_Int2String_2[1]
  11  0006              #line 11 "c:\users\林斐\desktop\11.机械臂\Int2String.c"
  11  0006  0700     R  	mov a,_Int2String_2[2]
  11  0007  0083        	mov mp,a
  11  0008  0700     R  	mov a,_Int2String_2[3]
  11  0009  0084        	mov sbp,a
  11  000A  0F2D        	mov a,45
  11  000B  0082        	mov ir,a
  11  000C  0F01        	mov a,1
  11  000D  0080     E  	mov rd,a
  11  000E  1F00     E  	clr re
  11  000F  2800     R  	jmp _L4
  11  0010              _L8:
   6  0010              #line 6 "c:\users\林斐\desktop\11.机械臂\Int2String.c"
   6  0010  1F00     E  	clr rd
   6  0011  1F00     E  	clr re
   6  0012              _L4:
   6  0012  0F01        	mov a,1
   6  0013  0300     E  	add a,rd
   6  0014  0080     E  	mov rb,a
   6  0015  0F00        	mov a,0
   6  0016  1300     E  	adc a,re
   6  0017  0080     E  	mov rc,a
文件：Int2String.c 编译器版本 HGASM 0202 页次3

  16  0018              #line 16 "c:\users\林斐\desktop\11.机械臂\Int2String.c"
  16  0018  0700     R  	mov a,_Int2String_2[0]
  16  0019  0080     E  	mov _builtin_holtek_udivmodhi4_2[0],a
  16  001A  0700     R  	mov a,_Int2String_2[1]
  16  001B  0080     E  	mov _builtin_holtek_udivmodhi4_2[1],a
  16  001C  0F0A        	mov a,10
  16  001D  0080     E  	mov _builtin_holtek_udivmodhi4_2[2],a
  16  001E  0F00        	mov a,0
  16  001F  0080     E  	mov _builtin_holtek_udivmodhi4_2[3],a
  16  0020              	fcall _builtin_holtek_divmodhi4
  16  0027  0700     E  	mov a,_builtin_holtek_udivmodhi4_2[4]
  16  0028  0080     E  	mov rf,a
  16  0029  0700     E  	mov a,_builtin_holtek_udivmodhi4_2[5]
  16  002A  0080     E  	mov rg,a
  16  002B  0F30        	mov a,48
  16  002C  0380     E  	addm a,rf
  16  002D  0700     E  	mov a,rd
  16  002E  0300     R  	add a,_Int2String_2[2]
  16  002F  0083        	mov mp,a
  16  0030  0700     E  	mov a,re
  16  0031  1300     R  	adc a,_Int2String_2[3]
  16  0032  0084        	mov sbp,a
  16  0033  0700     E  	mov a,rf
  16  0034  0082        	mov ir,a
  17  0035              #line 17 "c:\users\林斐\desktop\11.机械臂\Int2String.c"
  17  0035  0700     R  	mov a,_Int2String_2[0]
  17  0036  0080     E  	mov _builtin_holtek_udivmodhi4_2[0],a
  17  0037  0700     R  	mov a,_Int2String_2[1]
  17  0038  0080     E  	mov _builtin_holtek_udivmodhi4_2[1],a
  17  0039  0F0A        	mov a,10
  17  003A  0080     E  	mov _builtin_holtek_udivmodhi4_2[2],a
  17  003B  0F00        	mov a,0
  17  003C  0080     E  	mov _builtin_holtek_udivmodhi4_2[3],a
  17  003D              	fcall _builtin_holtek_divmodhi4
  17  0044  0700     E  	mov a,_builtin_holtek_udivmodhi4_2[0]
  17  0045  0080     E  	mov rf,a
  17  0046  0700     E  	mov a,_builtin_holtek_udivmodhi4_2[1]
  17  0047  0080     E  	mov rg,a
  17  0048  0700     E  	mov a,rf
  17  0049  0080     R  	mov _Int2String_2[0],a
  17  004A  0700     E  	mov a,rg
  17  004B  0080     R  	mov _Int2String_2[1],a
  18  004C              #line 18 "c:\users\林斐\desktop\11.机械臂\Int2String.c"
  18  004C  0700     E  	mov a,rf
  18  004D  0500     E  	or a,rg
  18  004E  3D0A        	sz z
  18  004F  2800     R  	jmp _L3
  16  0050              #line 16 "c:\users\林斐\desktop\11.机械臂\Int2String.c"
  16  0050  0700     E  	mov a,rb
  16  0051  0080     E  	mov rd,a
  16  0052  0700     E  	mov a,rc
  16  0053  0080     E  	mov re,a
  16  0054  2800     R  	jmp _L4
  16  0055              _L3:
  23  0055              #line 23 "c:\users\林斐\desktop\11.机械臂\Int2String.c"
  23  0055  0700     R  	mov a,_Int2String_2[2]
  23  0056  0083        	mov mp,a
  23  0057  0700     R  	mov a,_Int2String_2[3]
  23  0058  0084        	mov sbp,a
  23  0059              	fcall _Crom2Prom
文件：Int2String.c 编译器版本 HGASM 0202 页次4

  23  0060  0080     E  	mov ra,a
  23  0061  0700     E  	mov a,ra
  23  0062  0A2D        	sub a,45
  23  0063  390A        	snz z
  23  0064  2800     R  	jmp _L9
  26  0065              #line 26 "c:\users\林斐\desktop\11.机械臂\Int2String.c"
  26  0065  0F02        	mov a,2
  26  0066  0300     E  	add a,rd
  26  0067  0080     E  	mov rb,a
  26  0068  0F00        	mov a,0
  26  0069  1300     E  	adc a,re
  26  006A  0080     E  	mov rc,a
  25  006B              #line 25 "c:\users\林斐\desktop\11.机械臂\Int2String.c"
  25  006B  0F01        	mov a,1
  25  006C  0080     E  	mov rd,a
  25  006D  1F00     E  	clr re
  25  006E  2800     R  	jmp _L5
  25  006F              _L9:
   7  006F              #line 7 "c:\users\林斐\desktop\11.机械臂\Int2String.c"
   7  006F  1F00     E  	clr rd
   7  0070  1F00     E  	clr re
   7  0071              _L5:
  29  0071              #line 29 "c:\users\林斐\desktop\11.机械臂\Int2String.c"
  29  0071  0700     E  	mov a,rb
  29  0072  0080     E  	mov rf,a
  29  0073  0700     E  	mov a,rc
  29  0074  0080     E  	mov rg,a
  29  0075  1A80     E  	rlc rg
  29  0076  1F00     E  	clr rf
  29  0077  1A80     E  	rlc rf
  29  0078  1F00     E  	clr rg
  29  0079  0700     E  	mov a,rb
  29  007A  0300     E  	add a,rf
  29  007B  0080     R  	mov _Int2String_2[6],a
  29  007C  0700     E  	mov a,rc
  29  007D  1300     E  	adc a,rg
  29  007E  0080     R  	mov _Int2String_2[7],a
  29  007F  1A00     R  	rlca _Int2String_2[7]
  29  0080  1B80     R  	rrc _Int2String_2[7]
  29  0081  1B80     R  	rrc _Int2String_2[6]
  29  0082              _L6:
  29  0082  0700     E  	mov a,rd
  29  0083  0200     R  	sub a,_Int2String_2[6]
  29  0084  0700     E  	mov a,re
  29  0085  1200     R  	sbc a,_Int2String_2[7]
  29  0086  3B8A        	snz sc
  29  0087  2800     R  	jmp _L11
  29  0088  0700     E  	mov a,rd
  29  0089  0300     R  	add a,_Int2String_2[2]
  29  008A  0080     R  	mov _Int2String_2[4],a
  29  008B  0700     E  	mov a,re
  29  008C  1300     R  	adc a,_Int2String_2[3]
  29  008D  0080     R  	mov _Int2String_2[5],a
  29  008E  0700     E  	mov a,rb
  29  008F  0300     R  	add a,_Int2String_2[2]
  29  0090  0080     E  	mov rf,a
  29  0091  0700     E  	mov a,rc
  29  0092  1300     R  	adc a,_Int2String_2[3]
  29  0093  0080     E  	mov rg,a
  29  0094  0700     E  	mov a,rf
文件：Int2String.c 编译器版本 HGASM 0202 页次5

  29  0095  0200     E  	sub a,rd
  29  0096  0080     E  	mov rf,a
  29  0097  0700     E  	mov a,rg
  29  0098  1200     E  	sbc a,re
  29  0099  0080     E  	mov rg,a
  29  009A  0FFF        	mov a,255
  29  009B  0380     E  	addm a,rf
  29  009C  0FFF        	mov a,255
  29  009D  1380     E  	adcm a,rg
  32  009E              #line 32 "c:\users\林斐\desktop\11.机械臂\Int2String.c"
  32  009E  0700     E  	mov a,rf
  32  009F  0083        	mov mp,a
  32  00A0  0700     E  	mov a,rg
  32  00A1  0084        	mov sbp,a
  32  00A2              	fcall _Crom2Prom
  32  00A9  0080     E  	mov ra,a
  32  00AA  0700     R  	mov a,_Int2String_2[4]
  32  00AB  0083        	mov mp,a
  32  00AC  0700     R  	mov a,_Int2String_2[5]
  32  00AD  0084        	mov sbp,a
  32  00AE              	fcall _Crom2Prom
  32  00B5  0080     R  	mov _Int2String_2[8],a
  32  00B6  0700     R  	mov a,_Int2String_2[8]
  32  00B7  0380     E  	addm a,ra
  32  00B8  0700     E  	mov a,ra
  32  00B9  0082        	mov ir,a
  33  00BA              #line 33 "c:\users\林斐\desktop\11.机械臂\Int2String.c"
  33  00BA  0700     E  	mov a,rf
  33  00BB  0083        	mov mp,a
  33  00BC  0700     E  	mov a,rg
  33  00BD  0084        	mov sbp,a
  33  00BE              	fcall _Crom2Prom
  33  00C5  0080     R  	mov _Int2String_2[8],a
  33  00C6  0700     E  	mov a,ra
  33  00C7  0200     R  	sub a,_Int2String_2[8]
  33  00C8  0080     E  	mov ra,a
  33  00C9  0700     E  	mov a,ra
  33  00CA  0082        	mov ir,a
  34  00CB              #line 34 "c:\users\林斐\desktop\11.机械臂\Int2String.c"
  34  00CB  0700     R  	mov a,_Int2String_2[4]
  34  00CC  0083        	mov mp,a
  34  00CD  0700     R  	mov a,_Int2String_2[5]
  34  00CE  0084        	mov sbp,a
  34  00CF              	fcall _Crom2Prom
  34  00D6  0080     R  	mov _Int2String_2[4],a
  34  00D7  0700     R  	mov a,_Int2String_2[4]
  34  00D8  0280     E  	subm a,ra
  34  00D9  0700     E  	mov a,ra
  34  00DA  0082        	mov ir,a
  29  00DB              #line 29 "c:\users\林斐\desktop\11.机械臂\Int2String.c"
  29  00DB  1480     E  	inc rd
  29  00DC  3D0A        	sz z
  29  00DD  1480     E  	inc re
  29  00DE  2800     R  	jmp _L6
  29  00DF              _L11:
  36  00DF              #line 36 "c:\users\林斐\desktop\11.机械臂\Int2String.c"
  36  00DF  0700     E  	mov a,rb
  36  00E0  0300     R  	add a,_Int2String_2[2]
  36  00E1  0083        	mov mp,a
  36  00E2  0700     E  	mov a,rc
文件：Int2String.c 编译器版本 HGASM 0202 页次6

  36  00E3  1300     R  	adc a,_Int2String_2[3]
  36  00E4  0084        	mov sbp,a
  36  00E5  0F20        	mov a,32
  36  00E6  0082        	mov ir,a
  39  00E7              #line 39 "c:\users\林斐\desktop\11.机械臂\Int2String.c"
  39  00E7  0700     R  	mov a,_Int2String_2[2]
  39  00E8  0380     E  	addm a,rb
  39  00E9  0700     R  	mov a,_Int2String_2[3]
  39  00EA  1380     E  	adcm a,rc
  39  00EB  0F01        	mov a,1
  39  00EC  0300     E  	add a,rb
  39  00ED  0083        	mov mp,a
  39  00EE  0F00        	mov a,0
  39  00EF  1300     E  	adc a,rc
  39  00F0  0084        	mov sbp,a
  39  00F1  0F00        	mov a,0
  39  00F2  0082        	mov ir,a
  41  00F3              #line 41 "c:\users\林斐\desktop\11.机械臂\Int2String.c"
  41  00F3  0700     R  	mov a,_Int2String_2[2]
  41  00F4  0080     E  	mov ra,a
  41  00F5  0700     R  	mov a,_Int2String_2[3]
  41  00F6  0080     E  	mov rb,a
  41  00F7  0003        	ret
  41  00F8              _Int2String endp
  41  00F8              #line 41 "c:\users\林斐\desktop\11.机械臂\Int2String.c"
  41  00F8              #pragma debug scope 1 1
  41  00F8              public _String2Int
  41  00F8              #pragma debug scope 3 1
  44  00F8              #line 44 "c:\users\林斐\desktop\11.机械臂\Int2String.c"
  44  0000              _String2Int .section 'code'
  44  0000              _String2Int proc
  44  0000              public _String2Int_2
  44  0000  0002[           local _String2Int_2 db 2 dup(?)	; 2,0
            00
            ]
  44  0002              #pragma debug pointer 43 7 3
  44  0002              #pragma debug pointer 43 7 3
  44  0002              #pragma debug variable 43 3 _String2Int_2+0 "str"
  48  0002              #line 48 "c:\users\林斐\desktop\11.机械臂\Int2String.c"
  48  0000  0700     R  	mov a,_String2Int_2[0]
  48  0001  0083        	mov mp,a
  48  0002  0700     R  	mov a,_String2Int_2[1]
  48  0003  0084        	mov sbp,a
  48  0004              	fcall _Crom2Prom
  48  000B  0080     E  	mov ra,a
  48  000C  0700     E  	mov a,ra
  48  000D  0A2D        	sub a,45
  48  000E  390A        	snz z
  48  000F  2800     R  	jmp _L17
  50  0010              #line 50 "c:\users\林斐\desktop\11.机械臂\Int2String.c"
  50  0010  1480     R  	inc _String2Int_2[0]
  50  0011  3D0A        	sz z
  50  0012  1480     R  	inc _String2Int_2[1]
  51  0013              #line 51 "c:\users\林斐\desktop\11.机械臂\Int2String.c"
  51  0013  0F2D        	mov a,45
  51  0014  0080     E  	mov ra,a
  51  0015  2800     R  	jmp _L13
  51  0016              _L17:
  45  0016              #line 45 "c:\users\林斐\desktop\11.机械臂\Int2String.c"
  45  0016  0F2B        	mov a,43
文件：Int2String.c 编译器版本 HGASM 0202 页次7

  45  0017  0080     E  	mov ra,a
  45  0018              _L13:
  45  0018  1F00     E  	clr rd
  45  0019  1F00     E  	clr re
  45  001A  1F00     E  	clr rf
  45  001B  1F00     E  	clr rg
  45  001C              _L14:
  54  001C              #line 54 "c:\users\林斐\desktop\11.机械臂\Int2String.c"
  54  001C  0700     R  	mov a,_String2Int_2[0]
  54  001D  0083        	mov mp,a
  54  001E  0700     R  	mov a,_String2Int_2[1]
  54  001F  0084        	mov sbp,a
  54  0020              	fcall _Crom2Prom
  54  0027  0080     E  	mov rb,a
  54  0028  0700     E  	mov a,rb
  54  0029  0BD0        	add a,208
  54  002A  0080     E  	mov rc,a
  54  002B  0F09        	mov a,9
  54  002C  0200     E  	sub a,rc
  54  002D  380A        	snz c
  54  002E  2800     R  	jmp _L18
  56  002F              #line 56 "c:\users\林斐\desktop\11.机械臂\Int2String.c"
  56  002F  1480     R  	inc _String2Int_2[0]
  56  0030  3D0A        	sz z
  56  0031  1480     R  	inc _String2Int_2[1]
  56  0032  0700     E  	mov a,rd
  56  0033  0080     E  	mov _builtin_holtek_mulsi3_2[0],a
  56  0034  0700     E  	mov a,re
  56  0035  0080     E  	mov _builtin_holtek_mulsi3_2[1],a
  56  0036  0700     E  	mov a,rf
  56  0037  0080     E  	mov _builtin_holtek_mulsi3_2[2],a
  56  0038  0700     E  	mov a,rg
  56  0039  0080     E  	mov _builtin_holtek_mulsi3_2[3],a
  56  003A  0F0A        	mov a,10
  56  003B  0080     E  	mov _builtin_holtek_mulsi3_2[4],a
  56  003C  0F00        	mov a,0
  56  003D  0080     E  	mov _builtin_holtek_mulsi3_2[5],a
  56  003E  0F00        	mov a,0
  56  003F  0080     E  	mov _builtin_holtek_mulsi3_2[6],a
  56  0040  0F00        	mov a,0
  56  0041  0080     E  	mov _builtin_holtek_mulsi3_2[7],a
  56  0042              	fcall _builtin_holtek_mulsi3
  56  0049  0700     E  	mov a,_builtin_holtek_mulsi3_2[8]
  56  004A  0080     E  	mov rd,a
  56  004B  0700     E  	mov a,_builtin_holtek_mulsi3_2[9]
  56  004C  0080     E  	mov re,a
  56  004D  0700     E  	mov a,_builtin_holtek_mulsi3_2[10]
  56  004E  0080     E  	mov rf,a
  56  004F  0700     E  	mov a,_builtin_holtek_mulsi3_2[11]
  56  0050  0080     E  	mov rg,a
  56  0051  0FD0        	mov a,208
  56  0052  0380     E  	addm a,rd
  56  0053  0FFF        	mov a,255
  56  0054  1380     E  	adcm a,re
  56  0055  1380     E  	adcm a,rf
  56  0056  1380     E  	adcm a,rg
  56  0057  0700     E  	mov a,rb
  56  0058  0380     E  	addm a,rd
  56  0059  1F05        	clr acc
  56  005A  3C00     E  	sz rb.7
文件：Int2String.c 编译器版本 HGASM 0202 页次8

  56  005B  1F85        	set acc
  56  005C  1380     E  	adcm a,re
  56  005D  1380     E  	adcm a,rf
  56  005E  1380     E  	adcm a,rg
  56  005F  2800     R  	jmp _L14
  56  0060              _L18:
  59  0060              #line 59 "c:\users\林斐\desktop\11.机械臂\Int2String.c"
  59  0060  0700     E  	mov a,ra
  59  0061  0A2D        	sub a,45
  59  0062  390A        	snz z
  59  0063  2800     R  	jmp _L16
  61  0064              #line 61 "c:\users\林斐\desktop\11.机械臂\Int2String.c"
  61  0064  0F00        	mov a,0
  61  0065  0280     E  	subm a,rd
  61  0066  0F00        	mov a,0
  61  0067  1280     E  	sbcm a,re
  61  0068  0F00        	mov a,0
  61  0069  1280     E  	sbcm a,rf
  61  006A  0F00        	mov a,0
  61  006B  1280     E  	sbcm a,rg
  61  006C              _L16:
  65  006C              #line 65 "c:\users\林斐\desktop\11.机械臂\Int2String.c"
  65  006C  0700     E  	mov a,rd
  65  006D  0080     E  	mov ra,a
  65  006E  0700     E  	mov a,re
  65  006F  0080     E  	mov rb,a
  65  0070  0003        	ret
  65  0071              _String2Int endp
  65  0071              #line 65 "c:\users\林斐\desktop\11.机械臂\Int2String.c"
  65  0071              #pragma debug scope 1 1
  65  0071              public _Float2String
  65  0071              #pragma debug scope 4 1
  70  0071              #line 70 "c:\users\林斐\desktop\11.机械臂\Int2String.c"
  70  0000              _Float2String .section 'code'
  70  0000              _Float2String proc
  70  0000              public _Float2String_2
  70  0000  000A[           local _Float2String_2 db 10 dup(?)	; 5,5
            00
            ]
  70  000A              #pragma debug variable 28 4 _Float2String_2+0 "oat"
  70  000A              #pragma debug pointer 44 7 4
  70  000A              #pragma debug pointer 44 7 4
  70  000A              #pragma debug variable 44 4 _Float2String_2+3 "str"
  75  000A              #line 75 "c:\users\林斐\desktop\11.机械臂\Int2String.c"
  75  0000  1F00     E  	clr _builtin_holtek_mant12p[0]
  75  0001  0700     R  	mov a,_Float2String_2[2]
  75  0002  0080     E  	mov _builtin_holtek_mant1[2],a
  75  0003  0700     R  	mov a,_Float2String_2[1]
  75  0004  0080     E  	mov _builtin_holtek_mant1[1],a
  75  0005  0700     R  	mov a,_Float2String_2[0]
  75  0006  0080     E  	mov _builtin_holtek_mant1[0],a
  75  0007              	fcall _builtin_holtek_ftol
  75  000E  0700     E  	mov a,_builtin_holtek_mant12p[0]
  75  000F  0080     E  	mov rg,a
  75  0010  0700     E  	mov a,_builtin_holtek_mant1[2]
  75  0011  0080     E  	mov rf,a
  75  0012  0700     E  	mov a,_builtin_holtek_mant1[1]
  75  0013  0080     E  	mov re,a
  75  0014  0700     E  	mov a,_builtin_holtek_mant1[0]
  75  0015  0080     E  	mov rd,a
文件：Int2String.c 编译器版本 HGASM 0202 页次9

  75  0016  0700     E  	mov a,rd
  75  0017  0080     E  	mov rb,a
  75  0018  0700     E  	mov a,re
  75  0019  0080     E  	mov rc,a
  77  001A              #line 77 "c:\users\林斐\desktop\11.机械臂\Int2String.c"
  77  001A  0700     R  	mov a,_Float2String_2[2]
  77  001B  0080     E  	mov _builtin_holtek_mant1[2],a
  77  001C  0700     R  	mov a,_Float2String_2[1]
  77  001D  0080     E  	mov _builtin_holtek_mant1[1],a
  77  001E  0700     R  	mov a,_Float2String_2[0]
  77  001F  0080     E  	mov _builtin_holtek_mant1[0],a
  77  0020  0F00        	mov a,0
  77  0021  0080     E  	mov _builtin_holtek_mant2[2],a
  77  0022  0F00        	mov a,0
  77  0023  0080     E  	mov _builtin_holtek_mant2[1],a
  77  0024  0F00        	mov a,0
  77  0025  0080     E  	mov _builtin_holtek_mant2[0],a
  77  0026              	fcall _builtin_holtek_ftsub
  77  002D  3C00     E  	sz _builtin_holtek_mant1[2].7
  77  002E  2800     R  	jmp _L31
  71  002F              #line 71 "c:\users\林斐\desktop\11.机械臂\Int2String.c"
  71  002F  1F00     E  	clr rd
  71  0030  1F00     E  	clr re
  71  0031  2800     R  	jmp _L23
  71  0032              _L31:
  79  0032              #line 79 "c:\users\林斐\desktop\11.机械臂\Int2String.c"
  79  0032  0F00        	mov a,0
  79  0033  0280     E  	subm a,rb
  79  0034  0F00        	mov a,0
  79  0035  1280     E  	sbcm a,rc
  80  0036              #line 80 "c:\users\林斐\desktop\11.机械臂\Int2String.c"
  80  0036  0700     R  	mov a,_Float2String_2[3]
  80  0037  0083        	mov mp,a
  80  0038  0700     R  	mov a,_Float2String_2[4]
  80  0039  0084        	mov sbp,a
  80  003A  0F2D        	mov a,45
  80  003B  0082        	mov ir,a
  80  003C  0F01        	mov a,1
  80  003D  0080     E  	mov rd,a
  80  003E  1F00     E  	clr re
  80  003F              _L23:
  80  003F  0F01        	mov a,1
  80  0040  0300     E  	add a,rd
  80  0041  0080     R  	mov _Float2String_2[5],a
  80  0042  0F00        	mov a,0
  80  0043  1300     E  	adc a,re
  80  0044  0080     R  	mov _Float2String_2[6],a
  85  0045              #line 85 "c:\users\林斐\desktop\11.机械臂\Int2String.c"
  85  0045  0700     E  	mov a,rb
  85  0046  0080     E  	mov _builtin_holtek_udivmodhi4_2[0],a
  85  0047  0700     E  	mov a,rc
  85  0048  0080     E  	mov _builtin_holtek_udivmodhi4_2[1],a
  85  0049  0F0A        	mov a,10
  85  004A  0080     E  	mov _builtin_holtek_udivmodhi4_2[2],a
  85  004B  0F00        	mov a,0
  85  004C  0080     E  	mov _builtin_holtek_udivmodhi4_2[3],a
  85  004D              	fcall _builtin_holtek_divmodhi4
  85  0054  0700     E  	mov a,_builtin_holtek_udivmodhi4_2[4]
  85  0055  0080     E  	mov rf,a
  85  0056  0700     E  	mov a,_builtin_holtek_udivmodhi4_2[5]
文件：Int2String.c 编译器版本 HGASM 0202 页次10

  85  0057  0080     E  	mov rg,a
  85  0058  0F30        	mov a,48
  85  0059  0380     E  	addm a,rf
  85  005A  0700     E  	mov a,rd
  85  005B  0300     R  	add a,_Float2String_2[3]
  85  005C  0083        	mov mp,a
  85  005D  0700     E  	mov a,re
  85  005E  1300     R  	adc a,_Float2String_2[4]
  85  005F  0084        	mov sbp,a
  85  0060  0700     E  	mov a,rf
  85  0061  0082        	mov ir,a
  86  0062              #line 86 "c:\users\林斐\desktop\11.机械臂\Int2String.c"
  86  0062  0700     E  	mov a,rb
  86  0063  0080     E  	mov _builtin_holtek_udivmodhi4_2[0],a
  86  0064  0700     E  	mov a,rc
  86  0065  0080     E  	mov _builtin_holtek_udivmodhi4_2[1],a
  86  0066  0F0A        	mov a,10
  86  0067  0080     E  	mov _builtin_holtek_udivmodhi4_2[2],a
  86  0068  0F00        	mov a,0
  86  0069  0080     E  	mov _builtin_holtek_udivmodhi4_2[3],a
  86  006A              	fcall _builtin_holtek_divmodhi4
  86  0071  0700     E  	mov a,_builtin_holtek_udivmodhi4_2[0]
  86  0072  0080     E  	mov rb,a
  86  0073  0700     E  	mov a,_builtin_holtek_udivmodhi4_2[1]
  86  0074  0080     E  	mov rc,a
  87  0075              #line 87 "c:\users\林斐\desktop\11.机械臂\Int2String.c"
  87  0075  0700     E  	mov a,rb
  87  0076  0500     E  	or a,rc
  87  0077  3D0A        	sz z
  87  0078  2800     R  	jmp _L22
  85  0079              #line 85 "c:\users\林斐\desktop\11.机械臂\Int2String.c"
  85  0079  0700     R  	mov a,_Float2String_2[5]
  85  007A  0080     E  	mov rd,a
  85  007B  0700     R  	mov a,_Float2String_2[6]
  85  007C  0080     E  	mov re,a
  85  007D  2800     R  	jmp _L23
  85  007E              _L22:
  93  007E              #line 93 "c:\users\林斐\desktop\11.机械臂\Int2String.c"
  93  007E  0700     R  	mov a,_Float2String_2[3]
  93  007F  0083        	mov mp,a
  93  0080  0700     R  	mov a,_Float2String_2[4]
  93  0081  0084        	mov sbp,a
  93  0082              	fcall _Crom2Prom
  93  0089  0080     E  	mov ra,a
  93  008A  0700     E  	mov a,ra
  93  008B  0A2D        	sub a,45
  93  008C  390A        	snz z
  93  008D  2800     R  	jmp _L30
  96  008E              #line 96 "c:\users\林斐\desktop\11.机械臂\Int2String.c"
  96  008E  0F02        	mov a,2
  96  008F  0300     E  	add a,rd
  96  0090  0080     R  	mov _Float2String_2[5],a
  96  0091  0F00        	mov a,0
  96  0092  1300     E  	adc a,re
  96  0093  0080     R  	mov _Float2String_2[6],a
  95  0094              #line 95 "c:\users\林斐\desktop\11.机械臂\Int2String.c"
  95  0094  0F01        	mov a,1
  95  0095  0080     E  	mov rb,a
  95  0096  1F00     E  	clr rc
  95  0097  2800     R  	jmp _L24
文件：Int2String.c 编译器版本 HGASM 0202 页次11

  95  0098              _L30:
  72  0098              #line 72 "c:\users\林斐\desktop\11.机械臂\Int2String.c"
  72  0098  1F00     E  	clr rb
  72  0099  1F00     E  	clr rc
  72  009A              _L24:
  99  009A              #line 99 "c:\users\林斐\desktop\11.机械臂\Int2String.c"
  99  009A  0700     R  	mov a,_Float2String_2[5]
  99  009B  0080     E  	mov rf,a
  99  009C  0700     R  	mov a,_Float2String_2[6]
  99  009D  0080     E  	mov rg,a
  99  009E  1A80     E  	rlc rg
  99  009F  1F00     E  	clr rf
  99  00A0  1A80     E  	rlc rf
  99  00A1  1F00     E  	clr rg
  99  00A2  0700     R  	mov a,_Float2String_2[5]
  99  00A3  0380     E  	addm a,rf
  99  00A4  0700     R  	mov a,_Float2String_2[6]
  99  00A5  1380     E  	adcm a,rg
  99  00A6  1A00     E  	rlca rg
  99  00A7  1B80     E  	rrc rg
  99  00A8  1B80     E  	rrc rf
  99  00A9              _L25:
  99  00A9  0700     E  	mov a,rb
  99  00AA  0200     E  	sub a,rf
  99  00AB  0700     E  	mov a,rc
  99  00AC  1200     E  	sbc a,rg
  99  00AD  3B8A        	snz sc
  99  00AE  2800     R  	jmp _L34
  99  00AF  0700     E  	mov a,rb
  99  00B0  0300     R  	add a,_Float2String_2[3]
  99  00B1  0080     R  	mov _Float2String_2[7],a
  99  00B2  0700     E  	mov a,rc
  99  00B3  1300     R  	adc a,_Float2String_2[4]
  99  00B4  0080     R  	mov _Float2String_2[8],a
  99  00B5  0700     R  	mov a,_Float2String_2[5]
  99  00B6  0300     R  	add a,_Float2String_2[3]
  99  00B7  0080     E  	mov rd,a
  99  00B8  0700     R  	mov a,_Float2String_2[6]
  99  00B9  1300     R  	adc a,_Float2String_2[4]
  99  00BA  0080     E  	mov re,a
  99  00BB  0700     E  	mov a,rd
  99  00BC  0200     E  	sub a,rb
  99  00BD  0080     E  	mov rd,a
  99  00BE  0700     E  	mov a,re
  99  00BF  1200     E  	sbc a,rc
  99  00C0  0080     E  	mov re,a
  99  00C1  0FFF        	mov a,255
  99  00C2  0380     E  	addm a,rd
  99  00C3  0FFF        	mov a,255
  99  00C4  1380     E  	adcm a,re
 102  00C5              #line 102 "c:\users\林斐\desktop\11.机械臂\Int2String.c"
 102  00C5  0700     E  	mov a,rd
 102  00C6  0083        	mov mp,a
 102  00C7  0700     E  	mov a,re
 102  00C8  0084        	mov sbp,a
 102  00C9              	fcall _Crom2Prom
 102  00D0  0080     E  	mov ra,a
 102  00D1  0700     R  	mov a,_Float2String_2[7]
 102  00D2  0083        	mov mp,a
 102  00D3  0700     R  	mov a,_Float2String_2[8]
文件：Int2String.c 编译器版本 HGASM 0202 页次12

 102  00D4  0084        	mov sbp,a
 102  00D5              	fcall _Crom2Prom
 102  00DC  0080     R  	mov _Float2String_2[9],a
 102  00DD  0700     R  	mov a,_Float2String_2[9]
 102  00DE  0380     E  	addm a,ra
 102  00DF  0700     E  	mov a,ra
 102  00E0  0082        	mov ir,a
 103  00E1              #line 103 "c:\users\林斐\desktop\11.机械臂\Int2String.c"
 103  00E1  0700     E  	mov a,rd
 103  00E2  0083        	mov mp,a
 103  00E3  0700     E  	mov a,re
 103  00E4  0084        	mov sbp,a
 103  00E5              	fcall _Crom2Prom
 103  00EC  0080     R  	mov _Float2String_2[9],a
 103  00ED  0700     E  	mov a,ra
 103  00EE  0200     R  	sub a,_Float2String_2[9]
 103  00EF  0080     E  	mov ra,a
 103  00F0  0700     E  	mov a,ra
 103  00F1  0082        	mov ir,a
 104  00F2              #line 104 "c:\users\林斐\desktop\11.机械臂\Int2String.c"
 104  00F2  0700     R  	mov a,_Float2String_2[7]
 104  00F3  0083        	mov mp,a
 104  00F4  0700     R  	mov a,_Float2String_2[8]
 104  00F5  0084        	mov sbp,a
 104  00F6              	fcall _Crom2Prom
 104  00FD  0080     R  	mov _Float2String_2[7],a
 104  00FE  0700     R  	mov a,_Float2String_2[7]
 104  00FF  0280     E  	subm a,ra
 104  0100  0700     E  	mov a,ra
 104  0101  0082        	mov ir,a
  99  0102              #line 99 "c:\users\林斐\desktop\11.机械臂\Int2String.c"
  99  0102  1480     E  	inc rb
  99  0103  3D0A        	sz z
  99  0104  1480     E  	inc rc
  99  0105  2800     R  	jmp _L25
  99  0106              _L34:
 106  0106              #line 106 "c:\users\林斐\desktop\11.机械臂\Int2String.c"
 106  0106  0700     R  	mov a,_Float2String_2[3]
 106  0107  0083        	mov mp,a
 106  0108  0700     R  	mov a,_Float2String_2[4]
 106  0109  0084        	mov sbp,a
 106  010A              	fcall _Crom2Prom
 106  0111  0080     E  	mov ra,a
 106  0112  0700     E  	mov a,ra
 106  0113  0A2D        	sub a,45
 106  0114  390A        	snz z
 106  0115  2800     R  	jmp _L27
 109  0116              #line 109 "c:\users\林斐\desktop\11.机械臂\Int2String.c"
 109  0116  0700     R  	mov a,_Float2String_2[5]
 109  0117  0300     R  	add a,_Float2String_2[3]
 109  0118  0080     E  	mov rb,a
 109  0119  0700     R  	mov a,_Float2String_2[6]
 109  011A  1300     R  	adc a,_Float2String_2[4]
 109  011B  0080     E  	mov rc,a
 109  011C  0FFF        	mov a,255
 109  011D  0300     E  	add a,rb
 109  011E  0083        	mov mp,a
 109  011F  0FFF        	mov a,255
 109  0120  1300     E  	adc a,rc
 109  0121  0084        	mov sbp,a
文件：Int2String.c 编译器版本 HGASM 0202 页次13

 109  0122  0F2E        	mov a,46
 109  0123  0082        	mov ir,a
 110  0124              #line 110 "c:\users\林斐\desktop\11.机械臂\Int2String.c"
 110  0124  0700     R  	mov a,_Float2String_2[2]
 110  0125  0080     E  	mov _builtin_holtek_mant1[2],a
 110  0126  0700     R  	mov a,_Float2String_2[1]
 110  0127  0080     E  	mov _builtin_holtek_mant1[1],a
 110  0128  0700     R  	mov a,_Float2String_2[0]
 110  0129  0080     E  	mov _builtin_holtek_mant1[0],a
 110  012A  0F41        	mov a,65
 110  012B  0080     E  	mov _builtin_holtek_mant2[2],a
 110  012C  0F20        	mov a,32
 110  012D  0080     E  	mov _builtin_holtek_mant2[1],a
 110  012E  0F00        	mov a,0
 110  012F  0080     E  	mov _builtin_holtek_mant2[0],a
 110  0130              	fcall _builtin_holtek_ftmul
 110  0137  0700     E  	mov a,_builtin_holtek_mant1[2]
 110  0138  0080     E  	mov re,a
 110  0139  0700     E  	mov a,_builtin_holtek_mant1[1]
 110  013A  0080     E  	mov rd,a
 110  013B  0700     E  	mov a,_builtin_holtek_mant1[0]
 110  013C  0080     E  	mov rc,a
 110  013D  0700     E  	mov a,rd
 110  013E  0500     E  	or a,re
 110  013F  0F80        	mov a,80h
 110  0140  390A        	snz z
 110  0141  0480     E  	xorm a,re
 110  0142  1F00     E  	clr _builtin_holtek_mant12p[0]
 110  0143  0700     E  	mov a,re
 110  0144  0080     E  	mov _builtin_holtek_mant1[2],a
 110  0145  0700     E  	mov a,rd
 110  0146  0080     E  	mov _builtin_holtek_mant1[1],a
 110  0147  0700     E  	mov a,rc
 110  0148  0080     E  	mov _builtin_holtek_mant1[0],a
 110  0149              	fcall _builtin_holtek_ftol
 110  0150  0700     E  	mov a,_builtin_holtek_mant12p[0]
 110  0151  0080     E  	mov rg,a
 110  0152  0700     E  	mov a,_builtin_holtek_mant1[2]
 110  0153  0080     E  	mov rf,a
 110  0154  0700     E  	mov a,_builtin_holtek_mant1[1]
 110  0155  0080     E  	mov re,a
 110  0156  0700     E  	mov a,_builtin_holtek_mant1[0]
 110  0157  0080     E  	mov rd,a
 111  0158              #line 111 "c:\users\林斐\desktop\11.机械臂\Int2String.c"
 111  0158  0700     E  	mov a,rd
 111  0159  0080     E  	mov _builtin_holtek_udivmodhi4_2[0],a
 111  015A  0700     E  	mov a,re
 111  015B  0080     E  	mov _builtin_holtek_udivmodhi4_2[1],a
 111  015C  0F0A        	mov a,10
 111  015D  0080     E  	mov _builtin_holtek_udivmodhi4_2[2],a
 111  015E  0F00        	mov a,0
 111  015F  0080     E  	mov _builtin_holtek_udivmodhi4_2[3],a
 111  0160              	fcall _builtin_holtek_divmodhi4
 111  0167  0700     E  	mov a,_builtin_holtek_udivmodhi4_2[4]
 111  0168  0080     E  	mov rd,a
 111  0169  0700     E  	mov a,_builtin_holtek_udivmodhi4_2[5]
 111  016A  0080     E  	mov re,a
 111  016B  0F30        	mov a,48
 111  016C  0380     E  	addm a,rd
 111  016D  0700     R  	mov a,_Float2String_2[5]
文件：Int2String.c 编译器版本 HGASM 0202 页次14

 111  016E  0300     R  	add a,_Float2String_2[3]
 111  016F  0083        	mov mp,a
 111  0170  0700     R  	mov a,_Float2String_2[6]
 111  0171  1300     R  	adc a,_Float2String_2[4]
 111  0172  0084        	mov sbp,a
 111  0173  0700     E  	mov a,rd
 111  0174  0082        	mov ir,a
 113  0175              #line 113 "c:\users\林斐\desktop\11.机械臂\Int2String.c"
 113  0175  0F02        	mov a,2
 113  0176  0300     R  	add a,_Float2String_2[5]
 113  0177  0080     E  	mov rb,a
 113  0178  0F00        	mov a,0
 113  0179  1300     R  	adc a,_Float2String_2[6]
 113  017A  0080     E  	mov rc,a
 113  017B  0700     R  	mov a,_Float2String_2[3]
 113  017C  0380     R  	addm a,_Float2String_2[5]
 113  017D  0700     R  	mov a,_Float2String_2[4]
 113  017E  1380     R  	adcm a,_Float2String_2[6]
 112  017F              #line 112 "c:\users\林斐\desktop\11.机械臂\Int2String.c"
 112  017F  0700     R  	mov a,_Float2String_2[2]
 112  0180  0080     E  	mov _builtin_holtek_mant1[2],a
 112  0181  0700     R  	mov a,_Float2String_2[1]
 112  0182  0080     E  	mov _builtin_holtek_mant1[1],a
 112  0183  0700     R  	mov a,_Float2String_2[0]
 112  0184  0080     E  	mov _builtin_holtek_mant1[0],a
 112  0185  0F42        	mov a,66
 112  0186  0080     E  	mov _builtin_holtek_mant2[2],a
 112  0187  0FC8        	mov a,200
 112  0188  0080     E  	mov _builtin_holtek_mant2[1],a
 112  0189  0F00        	mov a,0
 112  018A  0080     E  	mov _builtin_holtek_mant2[0],a
 112  018B              	fcall _builtin_holtek_ftmul
 112  0192  0700     E  	mov a,_builtin_holtek_mant1[2]
 112  0193  0080     E  	mov rh,a
 112  0194  0700     E  	mov a,_builtin_holtek_mant1[1]
 112  0195  0080     E  	mov rg,a
 112  0196  0700     E  	mov a,_builtin_holtek_mant1[0]
 112  0197  0080     E  	mov rf,a
 112  0198  0700     E  	mov a,rg
 112  0199  0500     E  	or a,rh
 112  019A  0F80        	mov a,80h
 112  019B  390A        	snz z
 112  019C  0480     E  	xorm a,rh
 112  019D  1F00     E  	clr _builtin_holtek_mant12p[0]
 112  019E  0700     E  	mov a,rh
 112  019F  0080     E  	mov _builtin_holtek_mant1[2],a
 112  01A0  0700     E  	mov a,rg
 112  01A1  0080     E  	mov _builtin_holtek_mant1[1],a
 112  01A2  0700     E  	mov a,rf
 112  01A3  0080     E  	mov _builtin_holtek_mant1[0],a
 112  01A4              	fcall _builtin_holtek_ftol
 112  01AB  0700     E  	mov a,_builtin_holtek_mant12p[0]
 112  01AC  0080     E  	mov rg,a
 112  01AD  0700     E  	mov a,_builtin_holtek_mant1[2]
 112  01AE  0080     E  	mov rf,a
 112  01AF  0700     E  	mov a,_builtin_holtek_mant1[1]
 112  01B0  0080     E  	mov re,a
 112  01B1  0700     E  	mov a,_builtin_holtek_mant1[0]
 112  01B2  0080     E  	mov rd,a
 113  01B3              #line 113 "c:\users\林斐\desktop\11.机械臂\Int2String.c"
文件：Int2String.c 编译器版本 HGASM 0202 页次15

 113  01B3  0700     E  	mov a,rd
 113  01B4  0080     E  	mov _builtin_holtek_udivmodhi4_2[0],a
 113  01B5  0700     E  	mov a,re
 113  01B6  0080     E  	mov _builtin_holtek_udivmodhi4_2[1],a
 113  01B7  0F0A        	mov a,10
 113  01B8  0080     E  	mov _builtin_holtek_udivmodhi4_2[2],a
 113  01B9  0F00        	mov a,0
 113  01BA  0080     E  	mov _builtin_holtek_udivmodhi4_2[3],a
 113  01BB              	fcall _builtin_holtek_divmodhi4
 113  01C2  0700     E  	mov a,_builtin_holtek_udivmodhi4_2[4]
 113  01C3  0080     E  	mov rf,a
 113  01C4  0700     E  	mov a,_builtin_holtek_udivmodhi4_2[5]
 113  01C5  0080     E  	mov rg,a
 113  01C6  0F30        	mov a,48
 113  01C7  0380     E  	addm a,rf
 113  01C8  0F01        	mov a,1
 113  01C9  0300     R  	add a,_Float2String_2[5]
 113  01CA  0083        	mov mp,a
 113  01CB  0F00        	mov a,0
 113  01CC  1300     R  	adc a,_Float2String_2[6]
 113  01CD  0084        	mov sbp,a
 113  01CE  2800     R  	jmp _L33
 113  01CF              _L27:
 117  01CF              #line 117 "c:\users\林斐\desktop\11.机械臂\Int2String.c"
 117  01CF  0700     R  	mov a,_Float2String_2[5]
 117  01D0  0300     R  	add a,_Float2String_2[3]
 117  01D1  0083        	mov mp,a
 117  01D2  0700     R  	mov a,_Float2String_2[6]
 117  01D3  1300     R  	adc a,_Float2String_2[4]
 117  01D4  0084        	mov sbp,a
 117  01D5  0F2E        	mov a,46
 117  01D6  0082        	mov ir,a
 119  01D7              #line 119 "c:\users\林斐\desktop\11.机械臂\Int2String.c"
 119  01D7  0700     R  	mov a,_Float2String_2[5]
 119  01D8  0300     R  	add a,_Float2String_2[3]
 119  01D9  0080     E  	mov rb,a
 119  01DA  0700     R  	mov a,_Float2String_2[6]
 119  01DB  1300     R  	adc a,_Float2String_2[4]
 119  01DC  0080     E  	mov rc,a
 118  01DD              #line 118 "c:\users\林斐\desktop\11.机械臂\Int2String.c"
 118  01DD  0700     R  	mov a,_Float2String_2[2]
 118  01DE  0080     E  	mov _builtin_holtek_mant1[2],a
 118  01DF  0700     R  	mov a,_Float2String_2[1]
 118  01E0  0080     E  	mov _builtin_holtek_mant1[1],a
 118  01E1  0700     R  	mov a,_Float2String_2[0]
 118  01E2  0080     E  	mov _builtin_holtek_mant1[0],a
 118  01E3  0F41        	mov a,65
 118  01E4  0080     E  	mov _builtin_holtek_mant2[2],a
 118  01E5  0F20        	mov a,32
 118  01E6  0080     E  	mov _builtin_holtek_mant2[1],a
 118  01E7  0F00        	mov a,0
 118  01E8  0080     E  	mov _builtin_holtek_mant2[0],a
 118  01E9              	fcall _builtin_holtek_ftmul
 118  01F0  0700     E  	mov a,_builtin_holtek_mant1[2]
 118  01F1  0080     E  	mov rh,a
 118  01F2  0700     E  	mov a,_builtin_holtek_mant1[1]
 118  01F3  0080     E  	mov rg,a
 118  01F4  0700     E  	mov a,_builtin_holtek_mant1[0]
 118  01F5  0080     E  	mov rf,a
 118  01F6  1F00     E  	clr _builtin_holtek_mant12p[0]
文件：Int2String.c 编译器版本 HGASM 0202 页次16

 118  01F7  0700     E  	mov a,rh
 118  01F8  0080     E  	mov _builtin_holtek_mant1[2],a
 118  01F9  0700     E  	mov a,rg
 118  01FA  0080     E  	mov _builtin_holtek_mant1[1],a
 118  01FB  0700     E  	mov a,rf
 118  01FC  0080     E  	mov _builtin_holtek_mant1[0],a
 118  01FD              	fcall _builtin_holtek_ftol
 118  0204  0700     E  	mov a,_builtin_holtek_mant12p[0]
 118  0205  0080     E  	mov rg,a
 118  0206  0700     E  	mov a,_builtin_holtek_mant1[2]
 118  0207  0080     E  	mov rf,a
 118  0208  0700     E  	mov a,_builtin_holtek_mant1[1]
 118  0209  0080     E  	mov re,a
 118  020A  0700     E  	mov a,_builtin_holtek_mant1[0]
 118  020B  0080     E  	mov rd,a
 119  020C              #line 119 "c:\users\林斐\desktop\11.机械臂\Int2String.c"
 119  020C  0700     E  	mov a,rd
 119  020D  0080     E  	mov _builtin_holtek_udivmodhi4_2[0],a
 119  020E  0700     E  	mov a,re
 119  020F  0080     E  	mov _builtin_holtek_udivmodhi4_2[1],a
 119  0210  0F0A        	mov a,10
 119  0211  0080     E  	mov _builtin_holtek_udivmodhi4_2[2],a
 119  0212  0F00        	mov a,0
 119  0213  0080     E  	mov _builtin_holtek_udivmodhi4_2[3],a
 119  0214              	fcall _builtin_holtek_divmodhi4
 119  021B  0700     E  	mov a,_builtin_holtek_udivmodhi4_2[4]
 119  021C  0080     E  	mov rd,a
 119  021D  0700     E  	mov a,_builtin_holtek_udivmodhi4_2[5]
 119  021E  0080     E  	mov re,a
 119  021F  0F30        	mov a,48
 119  0220  0380     E  	addm a,rd
 119  0221  0F01        	mov a,1
 119  0222  0300     E  	add a,rb
 119  0223  0083        	mov mp,a
 119  0224  0F00        	mov a,0
 119  0225  1300     E  	adc a,rc
 119  0226  0084        	mov sbp,a
 119  0227  0700     E  	mov a,rd
 119  0228  0082        	mov ir,a
 121  0229              #line 121 "c:\users\林斐\desktop\11.机械臂\Int2String.c"
 121  0229  0F03        	mov a,3
 121  022A  0300     R  	add a,_Float2String_2[5]
 121  022B  0080     E  	mov rb,a
 121  022C  0F00        	mov a,0
 121  022D  1300     R  	adc a,_Float2String_2[6]
 121  022E  0080     E  	mov rc,a
 121  022F  0700     R  	mov a,_Float2String_2[3]
 121  0230  0380     R  	addm a,_Float2String_2[5]
 121  0231  0700     R  	mov a,_Float2String_2[4]
 121  0232  1380     R  	adcm a,_Float2String_2[6]
 120  0233              #line 120 "c:\users\林斐\desktop\11.机械臂\Int2String.c"
 120  0233  0700     R  	mov a,_Float2String_2[2]
 120  0234  0080     E  	mov _builtin_holtek_mant1[2],a
 120  0235  0700     R  	mov a,_Float2String_2[1]
 120  0236  0080     E  	mov _builtin_holtek_mant1[1],a
 120  0237  0700     R  	mov a,_Float2String_2[0]
 120  0238  0080     E  	mov _builtin_holtek_mant1[0],a
 120  0239  0F42        	mov a,66
 120  023A  0080     E  	mov _builtin_holtek_mant2[2],a
 120  023B  0FC8        	mov a,200
文件：Int2String.c 编译器版本 HGASM 0202 页次17

 120  023C  0080     E  	mov _builtin_holtek_mant2[1],a
 120  023D  0F00        	mov a,0
 120  023E  0080     E  	mov _builtin_holtek_mant2[0],a
 120  023F              	fcall _builtin_holtek_ftmul
 120  0246  0700     E  	mov a,_builtin_holtek_mant1[2]
 120  0247  0080     E  	mov rh,a
 120  0248  0700     E  	mov a,_builtin_holtek_mant1[1]
 120  0249  0080     E  	mov rg,a
 120  024A  0700     E  	mov a,_builtin_holtek_mant1[0]
 120  024B  0080     E  	mov rf,a
 120  024C  1F00     E  	clr _builtin_holtek_mant12p[0]
 120  024D  0700     E  	mov a,rh
 120  024E  0080     E  	mov _builtin_holtek_mant1[2],a
 120  024F  0700     E  	mov a,rg
 120  0250  0080     E  	mov _builtin_holtek_mant1[1],a
 120  0251  0700     E  	mov a,rf
 120  0252  0080     E  	mov _builtin_holtek_mant1[0],a
 120  0253              	fcall _builtin_holtek_ftol
 120  025A  0700     E  	mov a,_builtin_holtek_mant12p[0]
 120  025B  0080     E  	mov rg,a
 120  025C  0700     E  	mov a,_builtin_holtek_mant1[2]
 120  025D  0080     E  	mov rf,a
 120  025E  0700     E  	mov a,_builtin_holtek_mant1[1]
 120  025F  0080     E  	mov re,a
 120  0260  0700     E  	mov a,_builtin_holtek_mant1[0]
 120  0261  0080     E  	mov rd,a
 121  0262              #line 121 "c:\users\林斐\desktop\11.机械臂\Int2String.c"
 121  0262  0700     E  	mov a,rd
 121  0263  0080     E  	mov _builtin_holtek_udivmodhi4_2[0],a
 121  0264  0700     E  	mov a,re
 121  0265  0080     E  	mov _builtin_holtek_udivmodhi4_2[1],a
 121  0266  0F0A        	mov a,10
 121  0267  0080     E  	mov _builtin_holtek_udivmodhi4_2[2],a
 121  0268  0F00        	mov a,0
 121  0269  0080     E  	mov _builtin_holtek_udivmodhi4_2[3],a
 121  026A              	fcall _builtin_holtek_divmodhi4
 121  0271  0700     E  	mov a,_builtin_holtek_udivmodhi4_2[4]
 121  0272  0080     E  	mov rf,a
 121  0273  0700     E  	mov a,_builtin_holtek_udivmodhi4_2[5]
 121  0274  0080     E  	mov rg,a
 121  0275  0F30        	mov a,48
 121  0276  0380     E  	addm a,rf
 121  0277  0F02        	mov a,2
 121  0278  0300     R  	add a,_Float2String_2[5]
 121  0279  0083        	mov mp,a
 121  027A  0F00        	mov a,0
 121  027B  1300     R  	adc a,_Float2String_2[6]
 121  027C  0084        	mov sbp,a
 121  027D              _L33:
 121  027D  0700     E  	mov a,rf
 121  027E  0082        	mov ir,a
 124  027F              #line 124 "c:\users\林斐\desktop\11.机械臂\Int2String.c"
 124  027F  0700     E  	mov a,rb
 124  0280  0300     R  	add a,_Float2String_2[3]
 124  0281  0083        	mov mp,a
 124  0282  0700     E  	mov a,rc
 124  0283  1300     R  	adc a,_Float2String_2[4]
 124  0284  0084        	mov sbp,a
 124  0285  0F20        	mov a,32
 124  0286  0082        	mov ir,a
文件：Int2String.c 编译器版本 HGASM 0202 页次18

 125  0287              #line 125 "c:\users\林斐\desktop\11.机械臂\Int2String.c"
 125  0287  0700     R  	mov a,_Float2String_2[3]
 125  0288  0380     E  	addm a,rb
 125  0289  0700     R  	mov a,_Float2String_2[4]
 125  028A  1380     E  	adcm a,rc
 125  028B  0F01        	mov a,1
 125  028C  0300     E  	add a,rb
 125  028D  0083        	mov mp,a
 125  028E  0F00        	mov a,0
 125  028F  1300     E  	adc a,rc
 125  0290  0084        	mov sbp,a
 125  0291  0F00        	mov a,0
 125  0292  0082        	mov ir,a
 127  0293              #line 127 "c:\users\林斐\desktop\11.机械臂\Int2String.c"
 127  0293  0700     R  	mov a,_Float2String_2[3]
 127  0294  0080     E  	mov ra,a
 127  0295  0700     R  	mov a,_Float2String_2[4]
 127  0296  0080     E  	mov rb,a
 127  0297  0003        	ret
 127  0298              _Float2String endp
 127  0298              #line 127 "c:\users\林斐\desktop\11.机械臂\Int2String.c"
 127  0298              #pragma debug scope 1 1
 127  0298              extern _builtin_holtek_divmodhi4:near
 127  0298              extern _builtin_holtek_udivmodhi4_2:byte
 127  0298              extern _builtin_holtek_udivmodhi4:near
 127  0298              extern _builtin_holtek_mulsi3_2:byte
 127  0298              extern _builtin_holtek_mulsi3:near
 127  0298              extern _builtin_holtek_mant1:byte
 127  0298              extern _builtin_holtek_mant12p:byte
 127  0298              extern _builtin_holtek_ftol:near
 127  0298              extern _builtin_holtek_mant2:byte
 127  0298              extern _builtin_holtek_ftsub:near
 127  0298              extern _builtin_holtek_ftmul:near
 127  0298              
 127  0298              ; 
 127  0298              ; Generated by holtek-gcc v3.19, Wed May 25 14:39:47 2022
 127  0298              ; Rebuild 718
 127  0298              ; end of file


        0 Errors, 0