文件：main.c       编译器版本 HGASM 0202 页次1


   1  0000              ; Generated by holtek-gcc v3.19, Wed May 25 14:39:48 2022
   2  0000              ; 
   3  0000              ; Configuration:
   4  0000              ;       with long instruction
   5  0000              ;       Multi-ROM, Multi-RAM
   6  0000              ;       bits_per_rom_unit:16
   7  0000              ;       with mp1
   8  0000              ;       with tbhp, address(0x9)
   9  0000              ;          Use tabrd-const
  10  0000              ;       
  11  0000              ; SFR address of long-instruction arch:
  12  0000              ;    mp0 = -1,1,0
  13  0000              ;    mp1 = 4,3,2
  14  0000              ;    mp2 = 14,13,12
  15  0000              ;    tbp = 9,7,8
  16  0000              ;    acc = 5
  17  0000              ;    pcl = 6
  18  0000              ;    status = 10
  19  0000              ;    bp = 11
  20  0000              ;    intc = 16
  21  0000              ;       
  22  0000              ;       
  23  0000              ; use 'tabrdc' instead of 'tabrd'
  24  0000              ;       
  25  0000              
  26  0000              #pragma translator "holtek-gcc 4.6.4" "3.19" "build 20130711"
  27  0000              ; Rebuild 718
  28  0000              
  29  0000              ir equ [2]
  30  0000              mp equ [3]
  31  0000              sbp equ [4]
  32  0000              acc equ [5]
  33  0000              bp equ [11]
  34  0000              tblp equ [7]
  35  0000              tbhp equ [9]
  36  0000              status equ [10]
  37  0000              c equ [10].0
  38  0000              ac equ [10].1
  39  0000              z equ [10].2
  40  0000              ov equ [10].3
  41  0000              cz equ [10].6
  42  0000              sc equ [10].7
  43  0000              intc equ [16]
  44  0000              mduwr0 equ [59h]
  45  0000              mduwr1 equ [5ah]
  46  0000              mduwr2 equ [5bh]
  47  0000              mduwr3 equ [5ch]
  48  0000              mduwr4 equ [5dh]
  49  0000              mduwr5 equ [5eh]
  50  0000              mduwrctrl equ [5fh]
  51  0000              
  52  0000              extern ra:byte
  53  0000              extern rb:byte
  54  0000              extern rc:byte
  55  0000              extern rd:byte
  56  0000              extern re:byte
  57  0000              extern rf:byte
  58  0000              extern rg:byte
  59  0000              extern rh:byte
文件：main.ASM     编译器版本 HGASM 0202 页次2

  60  0000              extern _Crom2Prom:near
  61  0000              extern _Crom2PromNext:near
  62  0000              
  63  0000              RAMBANK 0 @BITDATASEC, @BITDATASEC1
  64  0000              @HCCINIT	.section 'data'
  65  0000              @HCCINIT0	.section 'data'
  66  0000              @BITDATASEC	 .section 'data'
  67  0000              @BITDATASEC1	 .section 'data'
  68  0000              
  69  0000              #pragma debug scope 1 1
  70  0000              	extern __DELAY3:near
  71  0000              	extern __DELAYX3:near
  72  0000              	extern __DELAYX6:near
  73  0000              	extern __DELAYY5:near
  74  0000              	extern __DELAYY3:near
  75  0000              	extern _builtin_holtek_delay_2:byte
  76  0000              ___intc0 equ [16]
  77  0000              ___ph equ [42]
  78  0000              ___mfi4 equ [55]
  79  0000              public _time2
  80  0000              #pragma debug scope 2 1

  57  0000              #line 57 "c:\users\林斐\desktop\11.机械臂\main.c"
  57  0000              rombank 0 @time2_code
  57  0000              @time2_code .section at 56 'code'
  57  0000  0080     E  	mov r1,a
  57  0001  070B        	mov a,bp
  57  0002  1F0B        	clr bp
  57  0003  2800     R  	jmp _time2
  57  0004              ROMBANK 0 _time2
  57  0004              #pragma debug scope 1 1
  57  0004              @dummy56 endp
  57  0004              #pragma debug scope 3 1
  57  0000              _time2 .section 'code'
  57  0000              _time2 proc
  57  0000  0080     E  	mov r2,a
  57  0001  070A        	mov a, status
  57  0002  0080     E  	mov r3,a
  58  0003              #line 58 "c:\users\林斐\desktop\11.机械臂\main.c"
  58  0003  3410        	clr [16].0
  59  0004              #line 59 "c:\users\林斐\desktop\11.机械臂\main.c"
  59  0004  0F01        	mov a,1
  59  0005  0300     R  	add a,_time2_count[0]
  59  0006  0080     E  	mov rb,a
  59  0007  0F00        	mov a,0
  59  0008  1300     R  	adc a,_time2_count[1]
  59  0009  0080     E  	mov rc,a
  60  000A              #line 60 "c:\users\林斐\desktop\11.机械臂\main.c"
  60  000A  0700     E  	mov a,rb
  60  000B  0C64        	xor a,100
  60  000C  0500     E  	or a,rc
  60  000D  3D0A        	sz z
  60  000E  2800     R  	jmp _L2
  59  000F              #line 59 "c:\users\林斐\desktop\11.机械臂\main.c"
  59  000F  0700     E  	mov a,rb
  59  0010  0080     R  	mov _time2_count[0],a
  59  0011  0700     E  	mov a,rc
  59  0012  0080     R  	mov _time2_count[1],a
  59  0013  2800     R  	jmp _L3
  59  0014              _L2:
文件：main.c       编译器版本 HGASM 0202 页次3

  62  0014              #line 62 "c:\users\林斐\desktop\11.机械臂\main.c"
  62  0014  1F00     R  	clr _time2_count[0]
  62  0015  1F00     R  	clr _time2_count[1]
  63  0016              #line 63 "c:\users\林斐\desktop\11.机械臂\main.c"
  63  0016  1F00     E  	clr ra
  63  0017  38AA        	snz [42].1
  63  0018  3000     E  	set ra.1
  63  0019  34AA        	clr [42].1
  63  001A  0700     E  	mov a,ra
  63  001B  05AA        	orm a,[42]
  63  001C              _L3:
  65  001C              #line 65 "c:\users\林斐\desktop\11.机械臂\main.c"
  65  001C  0F01        	mov a,1
  65  001D  0300     R  	add a,_mpu6050_delay[0]
  65  001E  0080     E  	mov rb,a
  65  001F  0F00        	mov a,0
  65  0020  1300     R  	adc a,_mpu6050_delay[1]
  65  0021  0080     E  	mov rc,a
  65  0022  0700     E  	mov a,rb
  65  0023  0C03        	xor a,3
  65  0024  0500     E  	or a,rc
  65  0025  3D0A        	sz z
  65  0026  2800     R  	jmp _L4
  65  0027  0700     E  	mov a,rb
  65  0028  0080     R  	mov _mpu6050_delay[0],a
  65  0029  0700     E  	mov a,rc
  65  002A  0080     R  	mov _mpu6050_delay[1],a
  65  002B  2800     R  	jmp _L5
  65  002C              _L4:
  65  002C  1F00     R  	clr _mpu6050_delay[0]
  65  002D  1F00     R  	clr _mpu6050_delay[1]
  65  002E              _L5:
  66  002E              #line 66 "c:\users\林斐\desktop\11.机械臂\main.c"
  66  002E  0F01        	mov a,1
  66  002F  0300     R  	add a,_mechanical_delay[0]
  66  0030  0080     E  	mov rb,a
  66  0031  0F00        	mov a,0
  66  0032  1300     R  	adc a,_mechanical_delay[1]
  66  0033  0080     E  	mov rc,a
  66  0034  0700     E  	mov a,rb
  66  0035  0C03        	xor a,3
  66  0036  0500     E  	or a,rc
  66  0037  3D0A        	sz z
  66  0038  2800     R  	jmp _L6
  66  0039  0700     E  	mov a,rb
  66  003A  0080     R  	mov _mechanical_delay[0],a
  66  003B  0700     E  	mov a,rc
  66  003C  0080     R  	mov _mechanical_delay[1],a
  66  003D  2800     R  	jmp _L7
  66  003E              _L6:
  66  003E  1F00     R  	clr _mechanical_delay[0]
  66  003F  1F00     R  	clr _mechanical_delay[1]
  66  0040              _L7:
  67  0040              #line 67 "c:\users\林斐\desktop\11.机械臂\main.c"
  67  0040  37B7        	clr [55].7
  68  0041              #line 68 "c:\users\林斐\desktop\11.机械臂\main.c"
  68  0041  3010        	set [16].0
  68  0042  0700     E  	mov a,r2
  68  0043  008B        	mov bp,a
  68  0044  0700     E  	mov a,r3
文件：main.c       编译器版本 HGASM 0202 页次4

  68  0045  008A        	mov status,a
  68  0046  0700     E  	mov a,r1
  68  0047  0004        	reti
  68  0048              _time2 endp
  68  0048              
  68  0048              #line 68 "c:\users\林斐\desktop\11.机械臂\main.c"
  68  0048              #pragma debug scope 1 1
  68  0048              ___mfi5 equ [56]
  68  0048              public _UART
  68  0048              #pragma debug scope 4 1
  74  0048              #line 74 "c:\users\林斐\desktop\11.机械臂\main.c"
  74  0048              rombank 0 @UART_code
  74  0000              @UART_code .section at 60 'code'
  74  0000  0080     E  	mov r1,a
  74  0001  070B        	mov a,bp
  74  0002  1F0B        	clr bp
  74  0003  2800     R  	jmp _UART
  74  0004              ROMBANK 0 _UART
  74  0004              #pragma debug scope 1 1
  74  0004              @dummy60 endp
  74  0004              #pragma debug scope 5 1
  74  0000              _UART .section 'code'
  74  0000              _UART proc
  74  0000  0032[       local _UART_2 db 50 dup(?)
            00
            ]
  74  0000  0080     E  	mov r2,a
  74  0001  070A        	mov a, status
  74  0002  0080     E  	mov r3,a
  74  0003  0703        	mov a,mp
  74  0004  0080     E  	mov r4,a
  74  0005  0704        	mov a,sbp
  74  0006  0080     E  	mov r5,a
  74  0007  0707        	mov a,tblp
  74  0008  0080     E  	mov r6,a
  74  0009  0709        	mov a,tbhp
  74  000A  0080     E  	mov r7,a
  74  000B              #pragma debug array 42 7 50 5
  74  000B              #pragma debug array 42 7 50 5
  74  000B              #pragma debug variable 42 5 _UART_2+0 "buff"
  75  000B              #line 75 "c:\users\林斐\desktop\11.机械臂\main.c"
  75  000B  1F00     R  	clr _UART_2[0]
  75  000C  1F00     R  	clr _UART_2[1]
  75  000D  1F00     R  	clr _UART_2[2]
  75  000E  1F00     R  	clr _UART_2[3]
  75  000F  1F00     R  	clr _UART_2[4]
  75  0010  1F00     R  	clr _UART_2[5]
  75  0011  1F00     R  	clr _UART_2[6]
  75  0012  1F00     R  	clr _UART_2[7]
  75  0013  1F00     R  	clr _UART_2[8]
  75  0014  1F00     R  	clr _UART_2[9]
  75  0015  1F00     R  	clr _UART_2[10]
  75  0016  1F00     R  	clr _UART_2[11]
  75  0017  1F00     R  	clr _UART_2[12]
  75  0018  1F00     R  	clr _UART_2[13]
  75  0019  1F00     R  	clr _UART_2[14]
  75  001A  1F00     R  	clr _UART_2[15]
  75  001B  1F00     R  	clr _UART_2[16]
  75  001C  1F00     R  	clr _UART_2[17]
  75  001D  1F00     R  	clr _UART_2[18]
文件：main.c       编译器版本 HGASM 0202 页次5

  75  001E  1F00     R  	clr _UART_2[19]
  75  001F  1F00     R  	clr _UART_2[20]
  75  0020  1F00     R  	clr _UART_2[21]
  75  0021  1F00     R  	clr _UART_2[22]
  75  0022  1F00     R  	clr _UART_2[23]
  75  0023  1F00     R  	clr _UART_2[24]
  75  0024  1F00     R  	clr _UART_2[25]
  75  0025  1F00     R  	clr _UART_2[26]
  75  0026  1F00     R  	clr _UART_2[27]
  75  0027  1F00     R  	clr _UART_2[28]
  75  0028  1F00     R  	clr _UART_2[29]
  75  0029  1F00     R  	clr _UART_2[30]
  75  002A  1F00     R  	clr _UART_2[31]
  75  002B  1F00     R  	clr _UART_2[32]
  75  002C  1F00     R  	clr _UART_2[33]
  75  002D  1F00     R  	clr _UART_2[34]
  75  002E  1F00     R  	clr _UART_2[35]
  75  002F  1F00     R  	clr _UART_2[36]
  75  0030  1F00     R  	clr _UART_2[37]
  75  0031  1F00     R  	clr _UART_2[38]
  75  0032  1F00     R  	clr _UART_2[39]
  75  0033  1F00     R  	clr _UART_2[40]
  75  0034  1F00     R  	clr _UART_2[41]
  75  0035  1F00     R  	clr _UART_2[42]
  75  0036  1F00     R  	clr _UART_2[43]
  75  0037  1F00     R  	clr _UART_2[44]
  75  0038  1F00     R  	clr _UART_2[45]
  75  0039  1F00     R  	clr _UART_2[46]
  75  003A  1F00     R  	clr _UART_2[47]
  75  003B  1F00     R  	clr _UART_2[48]
  75  003C  1F00     R  	clr _UART_2[49]
  76  003D              #line 76 "c:\users\林斐\desktop\11.机械臂\main.c"
  76  003D  3A38        	snz [56].4
  76  003E  2800     R  	jmp _L10
  78  003F              #line 78 "c:\users\林斐\desktop\11.机械臂\main.c"
  78  003F  0F0A        	mov a,10
  78  0040  0080     E  	mov _get_buff_2[2],a
  78  0041  0F00     R  	mov a,low offset _UART_2
  78  0042  0080     E  	mov _get_buff_2[0],a
  78  0043  0F00     R  	mov a,high offset _UART_2
  78  0044  0080     E  	mov _get_buff_2[1],a
  78  0045              	fcall _get_buff
  79  004C              #line 79 "c:\users\林斐\desktop\11.机械臂\main.c"
  79  004C  0F00     R  	mov a,low offset _UART_2
  79  004D  0080     E  	mov _send_buff_2[0],a
  79  004E  0F00     R  	mov a,high offset _UART_2
  79  004F  0080     E  	mov _send_buff_2[1],a
  79  0050              	fcall _send_buff
  80  0057              #line 80 "c:\users\林斐\desktop\11.机械臂\main.c"
  80  0057  0700     R  	mov a,_UART_2[0]
  80  0058  0080     R  	mov _Bluetooth[0],a
  80  0059              _L10:
  83  0059              #line 83 "c:\users\林斐\desktop\11.机械臂\main.c"
  83  0059  3AB8        	snz [56].5
  83  005A  2800     R  	jmp _L11
  85  005B              #line 85 "c:\users\林斐\desktop\11.机械臂\main.c"
  85  005B  0F0A        	mov a,10
  85  005C  0080     E  	mov _get_buff1_2[2],a
  85  005D  0F00     R  	mov a,low offset _UART_2
  85  005E  0080     E  	mov _get_buff1_2[0],a
文件：main.c       编译器版本 HGASM 0202 页次6

  85  005F  0F00     R  	mov a,high offset _UART_2
  85  0060  0080     E  	mov _get_buff1_2[1],a
  85  0061              	fcall _get_buff1
  86  0068              #line 86 "c:\users\林斐\desktop\11.机械臂\main.c"
  86  0068  0F00     R  	mov a,low offset _UART_2
  86  0069  0080     E  	mov _send_buff1_2[0],a
  86  006A  0F00     R  	mov a,high offset _UART_2
  86  006B  0080     E  	mov _send_buff1_2[1],a
  86  006C              	fcall _send_buff1
  87  0073              #line 87 "c:\users\林斐\desktop\11.机械臂\main.c"
  87  0073  0700     R  	mov a,_UART_2[0]
  87  0074  0080     R  	mov _Bluetooth[0],a
  87  0075              _L11:
  91  0075              #line 91 "c:\users\林斐\desktop\11.机械臂\main.c"
  91  0075  3638        	clr [56].4
  92  0076              #line 92 "c:\users\林斐\desktop\11.机械臂\main.c"
  92  0076  36B8        	clr [56].5
  92  0077  0700     E  	mov a,r2
  92  0078  008B        	mov bp,a
  92  0079  0700     E  	mov a,r3
  92  007A  008A        	mov status,a
  92  007B  0700     E  	mov a,r4
  92  007C  0083        	mov mp,a
  92  007D  0700     E  	mov a,r5
  92  007E  0084        	mov sbp,a
  92  007F  0700     E  	mov a,r6
  92  0080  0087        	mov tblp,a
  92  0081  0700     E  	mov a,r7
  92  0082  0089        	mov tbhp,a
  92  0083  1D05        	tabrdc acc
  92  0084  0700     E  	mov a,r1
  92  0085  0004        	reti
  92  0086              _UART endp
  92  0086              
  92  0086              #line 92 "c:\users\林斐\desktop\11.机械臂\main.c"
  92  0086              #pragma debug scope 1 1
  92  0000              @crom	.section 'crom'
  92  0000              _LC0:
  92  0000              	db 0b8h,0a9h,0d1h,0f6h,0bdh,0c7h,03dh,00h
  92  0004              @crom	.section 'crom'
  92  0004              _LC1:
  92  0004              	db 0bah,0e1h,0b9h,0f6h,0bdh,0c7h,03dh,00h
  92  0008              @crom	.section 'crom'
  92  0008              _LC2:
  92  0008              	db 0c6h,0abh,0bah,0bdh,0bdh,0c7h,03dh,00h
  92  000C              @crom	.section 'crom'
  92  000C              _LC3:
  92  000C              	db 0dh,0ah,00h
  92  000E              public _MUP_6060_READ
  92  000E              #pragma debug scope 6 1
 100  000E              #line 100 "c:\users\林斐\desktop\11.机械臂\main.c"
 100  0000              _MUP_6060_READ .section 'code'
 100  0000              _MUP_6060_READ proc
 100  0000  0014[           local _MUP_6060_READ_2 db 20 dup(?)	; 0,20
            00
            ]
 101  0014              #line 101 "c:\users\林斐\desktop\11.机械臂\main.c"
 101  0000  0700     R  	mov a,_mpu6050_delay[0]
 101  0001  0500     R  	or a,_mpu6050_delay[1]
 101  0002  390A        	snz z
文件：main.c       编译器版本 HGASM 0202 页次7

 101  0003  2800     R  	jmp _L18
 102  0004              #line 102 "c:\users\林斐\desktop\11.机械臂\main.c"
 102  0004  0F01        	mov a,1
 102  0005  0080     R  	mov _mpu6050_delay[0],a
 102  0006  1F00     R  	clr _mpu6050_delay[1]
 103  0007              #line 103 "c:\users\林斐\desktop\11.机械臂\main.c"
 103  0007  1F00     E  	clr _PWM_Change_0_2[0]
 103  0008  1F00     E  	clr _PWM_Change_0_2[1]
 103  0009              	fcall _PWM_Change_0
 104  0010              #line 104 "c:\users\林斐\desktop\11.机械臂\main.c"
 104  0010  1F00     E  	clr _PWM_Change_1_2[0]
 104  0011  1F00     E  	clr _PWM_Change_1_2[1]
 104  0012              	fcall _PWM_Change_1
 105  0019              #line 105 "c:\users\林斐\desktop\11.机械臂\main.c"
 105  0019              	fcall _getFIFOCount
 105  0020  0700     E  	mov a,ra
 105  0021  0080     R  	mov _i[0],a
 106  0022              #line 106 "c:\users\林斐\desktop\11.机械臂\main.c"
 106  0022  0F00     R  	mov a,low offset _zd
 106  0023  0080     E  	mov _i2cread_2[0],a
 106  0024  0F00     R  	mov a,high offset _zd
 106  0025  0080     E  	mov _i2cread_2[1],a
 106  0026  0F3A        	mov a,58
 106  0027              	fcall _i2cread
 107  002E              #line 107 "c:\users\林斐\desktop\11.机械臂\main.c"
 107  002E  0700     R  	mov a,_zd[0]
 107  002F  0080     R  	mov _MUP_6060_READ_2[0],a
 107  0030  3800     R  	snz _MUP_6060_READ_2[0].4
 107  0031  2800     R  	jmp _L21
 109  0032              #line 109 "c:\users\林斐\desktop\11.机械臂\main.c"
 109  0032  0F01        	mov a,1
 109  0033  0080     E  	mov _writeBit_2[1],a
 109  0034  0F02        	mov a,2
 109  0035  0080     E  	mov _writeBit_2[0],a
 109  0036  0F6A        	mov a,106
 109  0037              	fcall _writeBit
 109  003E  2800     R  	jmp _L18
 109  003F              _L21:
 111  003F              #line 111 "c:\users\林斐\desktop\11.机械臂\main.c"
 111  003F  3800     R  	snz _MUP_6060_READ_2[0].1
 111  0040  2800     R  	jmp _L18
 111  0041              _L23:
 113  0041              #line 113 "c:\users\林斐\desktop\11.机械臂\main.c"
 113  0041  0F29        	mov a,41
 113  0042  0200     R  	sub a,_i[0]
 113  0043  380A        	snz c
 113  0044  2800     R  	jmp _L28
 113  0045              	fcall _getFIFOCount
 113  004C  0700     E  	mov a,ra
 113  004D  0080     R  	mov _i[0],a
 113  004E  2800     R  	jmp _L23
 113  004F              _L28:
 114  004F              #line 114 "c:\users\林斐\desktop\11.机械臂\main.c"
 114  004F  0F00     R  	mov a,low offset _dmpdatas
 114  0050  0080     E  	mov _readdmp_2[0],a
 114  0051  0F00     R  	mov a,high offset _dmpdatas
 114  0052  0080     E  	mov _readdmp_2[1],a
 114  0053              	fcall _readdmp
 117  005A              #line 117 "c:\users\林斐\desktop\11.机械臂\main.c"
 117  005A  0700     R  	mov a,_dmpdatas[0]
文件：main.c       编译器版本 HGASM 0202 页次8

 117  005B  0080     R  	mov _MUP_6060_READ_2[0],a
 117  005C  1F00     R  	clr _MUP_6060_READ_2[1]
 117  005D  1F00     R  	clr _MUP_6060_READ_2[2]
 117  005E  1F00     R  	clr _MUP_6060_READ_2[3]
 117  005F  0700     R  	mov a,_MUP_6060_READ_2[0]
 117  0060  0080     R  	mov _MUP_6060_READ_2[3],a
 117  0061  1F00     R  	clr _MUP_6060_READ_2[2]
 117  0062  1F00     R  	clr _MUP_6060_READ_2[1]
 117  0063  1F00     R  	clr _MUP_6060_READ_2[0]
 117  0064  0700     R  	mov a,_dmpdatas[1]
 117  0065  0080     E  	mov rd,a
 117  0066  1F00     E  	clr re
 117  0067  1F00     E  	clr rf
 117  0068  1F00     E  	clr rg
 117  0069  0700     E  	mov a,re
 117  006A  0080     E  	mov rg,a
 117  006B  0700     E  	mov a,rd
 117  006C  0080     E  	mov rf,a
 117  006D  1F00     E  	clr re
 117  006E  1F00     E  	clr rd
 117  006F  0700     E  	mov a,rg
 117  0070  0580     R  	orm a,_MUP_6060_READ_2[3]
 117  0071  0700     E  	mov a,rf
 117  0072  0580     R  	orm a,_MUP_6060_READ_2[2]
 117  0073  0700     E  	mov a,re
 117  0074  0580     R  	orm a,_MUP_6060_READ_2[1]
 117  0075  0700     E  	mov a,rd
 117  0076  0580     R  	orm a,_MUP_6060_READ_2[0]
 118  0077              #line 118 "c:\users\林斐\desktop\11.机械臂\main.c"
 118  0077  0700     R  	mov a,_dmpdatas[3]
 118  0078  0080     E  	mov rd,a
 118  0079  1F00     E  	clr re
 118  007A  1F00     E  	clr rf
 118  007B  1F00     E  	clr rg
 117  007C              #line 117 "c:\users\林斐\desktop\11.机械臂\main.c"
 117  007C  0700     E  	mov a,rg
 117  007D  0580     R  	orm a,_MUP_6060_READ_2[3]
 117  007E  0700     E  	mov a,rf
 117  007F  0580     R  	orm a,_MUP_6060_READ_2[2]
 117  0080  0700     E  	mov a,re
 117  0081  0580     R  	orm a,_MUP_6060_READ_2[1]
 117  0082  0700     E  	mov a,rd
 117  0083  0580     R  	orm a,_MUP_6060_READ_2[0]
 118  0084              #line 118 "c:\users\林斐\desktop\11.机械臂\main.c"
 118  0084  0700     R  	mov a,_dmpdatas[2]
 118  0085  0080     E  	mov rd,a
 118  0086  1F00     E  	clr re
 118  0087  1F00     E  	clr rf
 118  0088  1F00     E  	clr rg
 118  0089  0700     E  	mov a,rf
 118  008A  0080     E  	mov rg,a
 118  008B  0700     E  	mov a,re
 118  008C  0080     E  	mov rf,a
 118  008D  0700     E  	mov a,rd
 118  008E  0080     E  	mov re,a
 118  008F  1F00     E  	clr rd
 118  0090  0700     R  	mov a,_MUP_6060_READ_2[3]
 118  0091  0500     E  	or a,rg
 118  0092  0080     R  	mov _MUP_6060_READ_2[7],a
 118  0093  0700     R  	mov a,_MUP_6060_READ_2[2]
文件：main.c       编译器版本 HGASM 0202 页次9

 118  0094  0500     E  	or a,rf
 118  0095  0080     R  	mov _MUP_6060_READ_2[6],a
 118  0096  0700     R  	mov a,_MUP_6060_READ_2[1]
 118  0097  0500     E  	or a,re
 118  0098  0080     R  	mov _MUP_6060_READ_2[5],a
 118  0099  0700     R  	mov a,_MUP_6060_READ_2[0]
 118  009A  0500     E  	or a,rd
 118  009B  0080     R  	mov _MUP_6060_READ_2[4],a
 117  009C              #line 117 "c:\users\林斐\desktop\11.机械臂\main.c"
 117  009C  0700     R  	mov a,_MUP_6060_READ_2[4]
 117  009D  0080     R  	mov _quat[0],a
 117  009E  0700     R  	mov a,_MUP_6060_READ_2[5]
 117  009F  0080     R  	mov _quat[1],a
 117  00A0  0700     R  	mov a,_MUP_6060_READ_2[6]
 117  00A1  0080     R  	mov _quat[2],a
 117  00A2  0700     R  	mov a,_MUP_6060_READ_2[7]
 117  00A3  0080     R  	mov _quat[3],a
 119  00A4              #line 119 "c:\users\林斐\desktop\11.机械臂\main.c"
 119  00A4  0700     R  	mov a,_dmpdatas[4]
 119  00A5  0080     R  	mov _MUP_6060_READ_2[0],a
 119  00A6  1F00     R  	clr _MUP_6060_READ_2[1]
 119  00A7  1F00     R  	clr _MUP_6060_READ_2[2]
 119  00A8  1F00     R  	clr _MUP_6060_READ_2[3]
 119  00A9  0700     R  	mov a,_MUP_6060_READ_2[0]
 119  00AA  0080     R  	mov _MUP_6060_READ_2[3],a
 119  00AB  1F00     R  	clr _MUP_6060_READ_2[2]
 119  00AC  1F00     R  	clr _MUP_6060_READ_2[1]
 119  00AD  1F00     R  	clr _MUP_6060_READ_2[0]
 119  00AE  0700     R  	mov a,_dmpdatas[5]
 119  00AF  0080     E  	mov rd,a
 119  00B0  1F00     E  	clr re
 119  00B1  1F00     E  	clr rf
 119  00B2  1F00     E  	clr rg
 119  00B3  0700     E  	mov a,re
 119  00B4  0080     E  	mov rg,a
 119  00B5  0700     E  	mov a,rd
 119  00B6  0080     E  	mov rf,a
 119  00B7  1F00     E  	clr re
 119  00B8  1F00     E  	clr rd
 119  00B9  0700     E  	mov a,rg
 119  00BA  0580     R  	orm a,_MUP_6060_READ_2[3]
 119  00BB  0700     E  	mov a,rf
 119  00BC  0580     R  	orm a,_MUP_6060_READ_2[2]
 119  00BD  0700     E  	mov a,re
 119  00BE  0580     R  	orm a,_MUP_6060_READ_2[1]
 119  00BF  0700     E  	mov a,rd
 119  00C0  0580     R  	orm a,_MUP_6060_READ_2[0]
 120  00C1              #line 120 "c:\users\林斐\desktop\11.机械臂\main.c"
 120  00C1  0700     R  	mov a,_dmpdatas[7]
 120  00C2  0080     E  	mov rd,a
 120  00C3  1F00     E  	clr re
 120  00C4  1F00     E  	clr rf
 120  00C5  1F00     E  	clr rg
 119  00C6              #line 119 "c:\users\林斐\desktop\11.机械臂\main.c"
 119  00C6  0700     E  	mov a,rg
 119  00C7  0580     R  	orm a,_MUP_6060_READ_2[3]
 119  00C8  0700     E  	mov a,rf
 119  00C9  0580     R  	orm a,_MUP_6060_READ_2[2]
 119  00CA  0700     E  	mov a,re
 119  00CB  0580     R  	orm a,_MUP_6060_READ_2[1]
文件：main.c       编译器版本 HGASM 0202 页次10

 119  00CC  0700     E  	mov a,rd
 119  00CD  0580     R  	orm a,_MUP_6060_READ_2[0]
 120  00CE              #line 120 "c:\users\林斐\desktop\11.机械臂\main.c"
 120  00CE  0700     R  	mov a,_dmpdatas[6]
 120  00CF  0080     E  	mov rd,a
 120  00D0  1F00     E  	clr re
 120  00D1  1F00     E  	clr rf
 120  00D2  1F00     E  	clr rg
 120  00D3  0700     E  	mov a,rf
 120  00D4  0080     E  	mov rg,a
 120  00D5  0700     E  	mov a,re
 120  00D6  0080     E  	mov rf,a
 120  00D7  0700     E  	mov a,rd
 120  00D8  0080     E  	mov re,a
 120  00D9  1F00     E  	clr rd
 120  00DA  0700     R  	mov a,_MUP_6060_READ_2[3]
 120  00DB  0500     E  	or a,rg
 120  00DC  0080     R  	mov _MUP_6060_READ_2[11],a
 120  00DD  0700     R  	mov a,_MUP_6060_READ_2[2]
 120  00DE  0500     E  	or a,rf
 120  00DF  0080     R  	mov _MUP_6060_READ_2[10],a
 120  00E0  0700     R  	mov a,_MUP_6060_READ_2[1]
 120  00E1  0500     E  	or a,re
 120  00E2  0080     R  	mov _MUP_6060_READ_2[9],a
 120  00E3  0700     R  	mov a,_MUP_6060_READ_2[0]
 120  00E4  0500     E  	or a,rd
 120  00E5  0080     R  	mov _MUP_6060_READ_2[8],a
 119  00E6              #line 119 "c:\users\林斐\desktop\11.机械臂\main.c"
 119  00E6  0700     R  	mov a,_MUP_6060_READ_2[8]
 119  00E7  0080     R  	mov _quat[4],a
 119  00E8  0700     R  	mov a,_MUP_6060_READ_2[9]
 119  00E9  0080     R  	mov _quat[5],a
 119  00EA  0700     R  	mov a,_MUP_6060_READ_2[10]
 119  00EB  0080     R  	mov _quat[6],a
 119  00EC  0700     R  	mov a,_MUP_6060_READ_2[11]
 119  00ED  0080     R  	mov _quat[7],a
 121  00EE              #line 121 "c:\users\林斐\desktop\11.机械臂\main.c"
 121  00EE  0700     R  	mov a,_dmpdatas[8]
 121  00EF  0080     R  	mov _MUP_6060_READ_2[0],a
 121  00F0  1F00     R  	clr _MUP_6060_READ_2[1]
 121  00F1  1F00     R  	clr _MUP_6060_READ_2[2]
 121  00F2  1F00     R  	clr _MUP_6060_READ_2[3]
 121  00F3  0700     R  	mov a,_MUP_6060_READ_2[0]
 121  00F4  0080     R  	mov _MUP_6060_READ_2[3],a
 121  00F5  1F00     R  	clr _MUP_6060_READ_2[2]
 121  00F6  1F00     R  	clr _MUP_6060_READ_2[1]
 121  00F7  1F00     R  	clr _MUP_6060_READ_2[0]
 121  00F8  0700     R  	mov a,_dmpdatas[9]
 121  00F9  0080     E  	mov rd,a
 121  00FA  1F00     E  	clr re
 121  00FB  1F00     E  	clr rf
 121  00FC  1F00     E  	clr rg
 121  00FD  0700     E  	mov a,re
 121  00FE  0080     E  	mov rg,a
 121  00FF  0700     E  	mov a,rd
 121  0100  0080     E  	mov rf,a
 121  0101  1F00     E  	clr re
 121  0102  1F00     E  	clr rd
 121  0103  0700     E  	mov a,rg
 121  0104  0580     R  	orm a,_MUP_6060_READ_2[3]
文件：main.c       编译器版本 HGASM 0202 页次11

 121  0105  0700     E  	mov a,rf
 121  0106  0580     R  	orm a,_MUP_6060_READ_2[2]
 121  0107  0700     E  	mov a,re
 121  0108  0580     R  	orm a,_MUP_6060_READ_2[1]
 121  0109  0700     E  	mov a,rd
 121  010A  0580     R  	orm a,_MUP_6060_READ_2[0]
 122  010B              #line 122 "c:\users\林斐\desktop\11.机械臂\main.c"
 122  010B  0700     R  	mov a,_dmpdatas[11]
 122  010C  0080     E  	mov rd,a
 122  010D  1F00     E  	clr re
 122  010E  1F00     E  	clr rf
 122  010F  1F00     E  	clr rg
 121  0110              #line 121 "c:\users\林斐\desktop\11.机械臂\main.c"
 121  0110  0700     E  	mov a,rg
 121  0111  0580     R  	orm a,_MUP_6060_READ_2[3]
 121  0112  0700     E  	mov a,rf
 121  0113  0580     R  	orm a,_MUP_6060_READ_2[2]
 121  0114  0700     E  	mov a,re
 121  0115  0580     R  	orm a,_MUP_6060_READ_2[1]
 121  0116  0700     E  	mov a,rd
 121  0117  0580     R  	orm a,_MUP_6060_READ_2[0]
 122  0118              #line 122 "c:\users\林斐\desktop\11.机械臂\main.c"
 122  0118  0700     R  	mov a,_dmpdatas[10]
 122  0119  0080     E  	mov rd,a
 122  011A  1F00     E  	clr re
 122  011B  1F00     E  	clr rf
 122  011C  1F00     E  	clr rg
 122  011D  0700     E  	mov a,rf
 122  011E  0080     E  	mov rg,a
 122  011F  0700     E  	mov a,re
 122  0120  0080     E  	mov rf,a
 122  0121  0700     E  	mov a,rd
 122  0122  0080     E  	mov re,a
 122  0123  1F00     E  	clr rd
 122  0124  0700     R  	mov a,_MUP_6060_READ_2[3]
 122  0125  0500     E  	or a,rg
 122  0126  0080     R  	mov _MUP_6060_READ_2[15],a
 122  0127  0700     R  	mov a,_MUP_6060_READ_2[2]
 122  0128  0500     E  	or a,rf
 122  0129  0080     R  	mov _MUP_6060_READ_2[14],a
 122  012A  0700     R  	mov a,_MUP_6060_READ_2[1]
 122  012B  0500     E  	or a,re
 122  012C  0080     R  	mov _MUP_6060_READ_2[13],a
 122  012D  0700     R  	mov a,_MUP_6060_READ_2[0]
 122  012E  0500     E  	or a,rd
 122  012F  0080     R  	mov _MUP_6060_READ_2[12],a
 121  0130              #line 121 "c:\users\林斐\desktop\11.机械臂\main.c"
 121  0130  0700     R  	mov a,_MUP_6060_READ_2[12]
 121  0131  0080     R  	mov _quat[8],a
 121  0132  0700     R  	mov a,_MUP_6060_READ_2[13]
 121  0133  0080     R  	mov _quat[9],a
 121  0134  0700     R  	mov a,_MUP_6060_READ_2[14]
 121  0135  0080     R  	mov _quat[10],a
 121  0136  0700     R  	mov a,_MUP_6060_READ_2[15]
 121  0137  0080     R  	mov _quat[11],a
 123  0138              #line 123 "c:\users\林斐\desktop\11.机械臂\main.c"
 123  0138  0700     R  	mov a,_dmpdatas[12]
 123  0139  0080     R  	mov _MUP_6060_READ_2[0],a
 123  013A  1F00     R  	clr _MUP_6060_READ_2[1]
 123  013B  1F00     R  	clr _MUP_6060_READ_2[2]
文件：main.c       编译器版本 HGASM 0202 页次12

 123  013C  1F00     R  	clr _MUP_6060_READ_2[3]
 123  013D  0700     R  	mov a,_MUP_6060_READ_2[0]
 123  013E  0080     R  	mov _MUP_6060_READ_2[3],a
 123  013F  1F00     R  	clr _MUP_6060_READ_2[2]
 123  0140  1F00     R  	clr _MUP_6060_READ_2[1]
 123  0141  1F00     R  	clr _MUP_6060_READ_2[0]
 123  0142  0700     R  	mov a,_dmpdatas[13]
 123  0143  0080     E  	mov rd,a
 123  0144  1F00     E  	clr re
 123  0145  1F00     E  	clr rf
 123  0146  1F00     E  	clr rg
 123  0147  0700     E  	mov a,re
 123  0148  0080     E  	mov rg,a
 123  0149  0700     E  	mov a,rd
 123  014A  0080     E  	mov rf,a
 123  014B  1F00     E  	clr re
 123  014C  1F00     E  	clr rd
 123  014D  0700     E  	mov a,rg
 123  014E  0580     R  	orm a,_MUP_6060_READ_2[3]
 123  014F  0700     E  	mov a,rf
 123  0150  0580     R  	orm a,_MUP_6060_READ_2[2]
 123  0151  0700     E  	mov a,re
 123  0152  0580     R  	orm a,_MUP_6060_READ_2[1]
 123  0153  0700     E  	mov a,rd
 123  0154  0580     R  	orm a,_MUP_6060_READ_2[0]
 124  0155              #line 124 "c:\users\林斐\desktop\11.机械臂\main.c"
 124  0155  0700     R  	mov a,_dmpdatas[15]
 124  0156  0080     E  	mov rd,a
 124  0157  1F00     E  	clr re
 124  0158  1F00     E  	clr rf
 124  0159  1F00     E  	clr rg
 123  015A              #line 123 "c:\users\林斐\desktop\11.机械臂\main.c"
 123  015A  0700     E  	mov a,rg
 123  015B  0580     R  	orm a,_MUP_6060_READ_2[3]
 123  015C  0700     E  	mov a,rf
 123  015D  0580     R  	orm a,_MUP_6060_READ_2[2]
 123  015E  0700     E  	mov a,re
 123  015F  0580     R  	orm a,_MUP_6060_READ_2[1]
 123  0160  0700     E  	mov a,rd
 123  0161  0580     R  	orm a,_MUP_6060_READ_2[0]
 124  0162              #line 124 "c:\users\林斐\desktop\11.机械臂\main.c"
 124  0162  0700     R  	mov a,_dmpdatas[14]
 124  0163  0080     E  	mov rd,a
 124  0164  1F00     E  	clr re
 124  0165  1F00     E  	clr rf
 124  0166  1F00     E  	clr rg
 124  0167  0700     E  	mov a,rf
 124  0168  0080     E  	mov rg,a
 124  0169  0700     E  	mov a,re
 124  016A  0080     E  	mov rf,a
 124  016B  0700     E  	mov a,rd
 124  016C  0080     E  	mov re,a
 124  016D  1F00     E  	clr rd
 124  016E  0700     R  	mov a,_MUP_6060_READ_2[3]
 124  016F  0500     E  	or a,rg
 124  0170  0080     R  	mov _MUP_6060_READ_2[19],a
 124  0171  0700     R  	mov a,_MUP_6060_READ_2[2]
 124  0172  0500     E  	or a,rf
 124  0173  0080     R  	mov _MUP_6060_READ_2[18],a
 124  0174  0700     R  	mov a,_MUP_6060_READ_2[1]
文件：main.c       编译器版本 HGASM 0202 页次13

 124  0175  0500     E  	or a,re
 124  0176  0080     R  	mov _MUP_6060_READ_2[17],a
 124  0177  0700     R  	mov a,_MUP_6060_READ_2[0]
 124  0178  0500     E  	or a,rd
 124  0179  0080     R  	mov _MUP_6060_READ_2[16],a
 123  017A              #line 123 "c:\users\林斐\desktop\11.机械臂\main.c"
 123  017A  0700     R  	mov a,_MUP_6060_READ_2[16]
 123  017B  0080     R  	mov _quat[12],a
 123  017C  0700     R  	mov a,_MUP_6060_READ_2[17]
 123  017D  0080     R  	mov _quat[13],a
 123  017E  0700     R  	mov a,_MUP_6060_READ_2[18]
 123  017F  0080     R  	mov _quat[14],a
 123  0180  0700     R  	mov a,_MUP_6060_READ_2[19]
 123  0181  0080     R  	mov _quat[15],a
 126  0182              #line 126 "c:\users\林斐\desktop\11.机械臂\main.c"
 126  0182  0700     R  	mov a,_MUP_6060_READ_2[7]
 126  0183  0080     E  	mov _builtin_holtek_mant12p[0],a
 126  0184  0700     R  	mov a,_MUP_6060_READ_2[6]
 126  0185  0080     E  	mov _builtin_holtek_mant1[2],a
 126  0186  0700     R  	mov a,_MUP_6060_READ_2[5]
 126  0187  0080     E  	mov _builtin_holtek_mant1[1],a
 126  0188  0700     R  	mov a,_MUP_6060_READ_2[4]
 126  0189  0080     E  	mov _builtin_holtek_mant1[0],a
 126  018A              	fcall _builtin_holtek_ltof
 126  0191  0700     E  	mov a,_builtin_holtek_mant1[2]
 126  0192  0080     E  	mov rh,a
 126  0193  0700     E  	mov a,_builtin_holtek_mant1[1]
 126  0194  0080     E  	mov rg,a
 126  0195  0700     E  	mov a,_builtin_holtek_mant1[0]
 126  0196  0080     E  	mov rf,a
 126  0197  0700     E  	mov a,rh
 126  0198  0080     E  	mov _builtin_holtek_mant1[2],a
 126  0199  0700     E  	mov a,rg
 126  019A  0080     E  	mov _builtin_holtek_mant1[1],a
 126  019B  0700     E  	mov a,rf
 126  019C  0080     E  	mov _builtin_holtek_mant1[0],a
 126  019D  0F30        	mov a,48
 126  019E  0080     E  	mov _builtin_holtek_mant2[2],a
 126  019F  0F80        	mov a,128
 126  01A0  0080     E  	mov _builtin_holtek_mant2[1],a
 126  01A1  0F00        	mov a,0
 126  01A2  0080     E  	mov _builtin_holtek_mant2[0],a
 126  01A3              	fcall _builtin_holtek_ftmul
 126  01AA  0700     E  	mov a,_builtin_holtek_mant1[2]
 126  01AB  0080     R  	mov _MUP_6060_READ_2[2],a
 126  01AC  0700     E  	mov a,_builtin_holtek_mant1[1]
 126  01AD  0080     R  	mov _MUP_6060_READ_2[1],a
 126  01AE  0700     E  	mov a,_builtin_holtek_mant1[0]
 126  01AF  0080     R  	mov _MUP_6060_READ_2[0],a
 126  01B0  0700     R  	mov a,_MUP_6060_READ_2[0]
 126  01B1  0080     R  	mov _q0[0],a
 126  01B2  0700     R  	mov a,_MUP_6060_READ_2[1]
 126  01B3  0080     R  	mov _q0[1],a
 126  01B4  0700     R  	mov a,_MUP_6060_READ_2[2]
 126  01B5  0080     R  	mov _q0[2],a
 127  01B6              #line 127 "c:\users\林斐\desktop\11.机械臂\main.c"
 127  01B6  0700     R  	mov a,_MUP_6060_READ_2[11]
 127  01B7  0080     E  	mov _builtin_holtek_mant12p[0],a
 127  01B8  0700     R  	mov a,_MUP_6060_READ_2[10]
 127  01B9  0080     E  	mov _builtin_holtek_mant1[2],a
文件：main.c       编译器版本 HGASM 0202 页次14

 127  01BA  0700     R  	mov a,_MUP_6060_READ_2[9]
 127  01BB  0080     E  	mov _builtin_holtek_mant1[1],a
 127  01BC  0700     R  	mov a,_MUP_6060_READ_2[8]
 127  01BD  0080     E  	mov _builtin_holtek_mant1[0],a
 127  01BE              	fcall _builtin_holtek_ltof
 127  01C5  0700     E  	mov a,_builtin_holtek_mant1[2]
 127  01C6  0080     E  	mov rh,a
 127  01C7  0700     E  	mov a,_builtin_holtek_mant1[1]
 127  01C8  0080     E  	mov rg,a
 127  01C9  0700     E  	mov a,_builtin_holtek_mant1[0]
 127  01CA  0080     E  	mov rf,a
 127  01CB  0700     E  	mov a,rh
 127  01CC  0080     E  	mov _builtin_holtek_mant1[2],a
 127  01CD  0700     E  	mov a,rg
 127  01CE  0080     E  	mov _builtin_holtek_mant1[1],a
 127  01CF  0700     E  	mov a,rf
 127  01D0  0080     E  	mov _builtin_holtek_mant1[0],a
 127  01D1  0F30        	mov a,48
 127  01D2  0080     E  	mov _builtin_holtek_mant2[2],a
 127  01D3  0F80        	mov a,128
 127  01D4  0080     E  	mov _builtin_holtek_mant2[1],a
 127  01D5  0F00        	mov a,0
 127  01D6  0080     E  	mov _builtin_holtek_mant2[0],a
 127  01D7              	fcall _builtin_holtek_ftmul
 127  01DE  0700     E  	mov a,_builtin_holtek_mant1[2]
 127  01DF  0080     E  	mov rh,a
 127  01E0  0700     E  	mov a,_builtin_holtek_mant1[1]
 127  01E1  0080     E  	mov rg,a
 127  01E2  0700     E  	mov a,_builtin_holtek_mant1[0]
 127  01E3  0080     E  	mov rf,a
 127  01E4  0700     E  	mov a,rf
 127  01E5  0080     R  	mov _q1[0],a
 127  01E6  0700     E  	mov a,rg
 127  01E7  0080     R  	mov _q1[1],a
 127  01E8  0700     E  	mov a,rh
 127  01E9  0080     R  	mov _q1[2],a
 128  01EA              #line 128 "c:\users\林斐\desktop\11.机械臂\main.c"
 128  01EA  0700     R  	mov a,_MUP_6060_READ_2[15]
 128  01EB  0080     E  	mov _builtin_holtek_mant12p[0],a
 128  01EC  0700     R  	mov a,_MUP_6060_READ_2[14]
 128  01ED  0080     E  	mov _builtin_holtek_mant1[2],a
 128  01EE  0700     R  	mov a,_MUP_6060_READ_2[13]
 128  01EF  0080     E  	mov _builtin_holtek_mant1[1],a
 128  01F0  0700     R  	mov a,_MUP_6060_READ_2[12]
 128  01F1  0080     E  	mov _builtin_holtek_mant1[0],a
 128  01F2              	fcall _builtin_holtek_ltof
 128  01F9  0700     E  	mov a,_builtin_holtek_mant1[2]
 128  01FA  0080     E  	mov re,a
 128  01FB  0700     E  	mov a,_builtin_holtek_mant1[1]
 128  01FC  0080     E  	mov rd,a
 128  01FD  0700     E  	mov a,_builtin_holtek_mant1[0]
 128  01FE  0080     E  	mov rc,a
 128  01FF  0700     E  	mov a,re
 128  0200  0080     E  	mov _builtin_holtek_mant1[2],a
 128  0201  0700     E  	mov a,rd
 128  0202  0080     E  	mov _builtin_holtek_mant1[1],a
 128  0203  0700     E  	mov a,rc
 128  0204  0080     E  	mov _builtin_holtek_mant1[0],a
 128  0205  0F30        	mov a,48
 128  0206  0080     E  	mov _builtin_holtek_mant2[2],a
文件：main.c       编译器版本 HGASM 0202 页次15

 128  0207  0F80        	mov a,128
 128  0208  0080     E  	mov _builtin_holtek_mant2[1],a
 128  0209  0F00        	mov a,0
 128  020A  0080     E  	mov _builtin_holtek_mant2[0],a
 128  020B              	fcall _builtin_holtek_ftmul
 128  0212  0700     E  	mov a,_builtin_holtek_mant1[2]
 128  0213  0080     R  	mov _MUP_6060_READ_2[6],a
 128  0214  0700     E  	mov a,_builtin_holtek_mant1[1]
 128  0215  0080     R  	mov _MUP_6060_READ_2[5],a
 128  0216  0700     E  	mov a,_builtin_holtek_mant1[0]
 128  0217  0080     R  	mov _MUP_6060_READ_2[4],a
 128  0218  0700     R  	mov a,_MUP_6060_READ_2[4]
 128  0219  0080     R  	mov _q2[0],a
 128  021A  0700     R  	mov a,_MUP_6060_READ_2[5]
 128  021B  0080     R  	mov _q2[1],a
 128  021C  0700     R  	mov a,_MUP_6060_READ_2[6]
 128  021D  0080     R  	mov _q2[2],a
 129  021E              #line 129 "c:\users\林斐\desktop\11.机械臂\main.c"
 129  021E  0700     R  	mov a,_MUP_6060_READ_2[19]
 129  021F  0080     E  	mov _builtin_holtek_mant12p[0],a
 129  0220  0700     R  	mov a,_MUP_6060_READ_2[18]
 129  0221  0080     E  	mov _builtin_holtek_mant1[2],a
 129  0222  0700     R  	mov a,_MUP_6060_READ_2[17]
 129  0223  0080     E  	mov _builtin_holtek_mant1[1],a
 129  0224  0700     R  	mov a,_MUP_6060_READ_2[16]
 129  0225  0080     E  	mov _builtin_holtek_mant1[0],a
 129  0226              	fcall _builtin_holtek_ltof
 129  022D  0700     E  	mov a,_builtin_holtek_mant1[2]
 129  022E  0080     E  	mov re,a
 129  022F  0700     E  	mov a,_builtin_holtek_mant1[1]
 129  0230  0080     E  	mov rd,a
 129  0231  0700     E  	mov a,_builtin_holtek_mant1[0]
 129  0232  0080     E  	mov rc,a
 129  0233  0700     E  	mov a,re
 129  0234  0080     E  	mov _builtin_holtek_mant1[2],a
 129  0235  0700     E  	mov a,rd
 129  0236  0080     E  	mov _builtin_holtek_mant1[1],a
 129  0237  0700     E  	mov a,rc
 129  0238  0080     E  	mov _builtin_holtek_mant1[0],a
 129  0239  0F30        	mov a,48
 129  023A  0080     E  	mov _builtin_holtek_mant2[2],a
 129  023B  0F80        	mov a,128
 129  023C  0080     E  	mov _builtin_holtek_mant2[1],a
 129  023D  0F00        	mov a,0
 129  023E  0080     E  	mov _builtin_holtek_mant2[0],a
 129  023F              	fcall _builtin_holtek_ftmul
 129  0246  0700     E  	mov a,_builtin_holtek_mant1[2]
 129  0247  0080     E  	mov re,a
 129  0248  0700     E  	mov a,_builtin_holtek_mant1[1]
 129  0249  0080     E  	mov rd,a
 129  024A  0700     E  	mov a,_builtin_holtek_mant1[0]
 129  024B  0080     E  	mov rc,a
 129  024C  0700     E  	mov a,rc
 129  024D  0080     R  	mov _q3[0],a
 129  024E  0700     E  	mov a,rd
 129  024F  0080     R  	mov _q3[1],a
 129  0250  0700     E  	mov a,re
 129  0251  0080     R  	mov _q3[2],a
 132  0252              #line 132 "c:\users\林斐\desktop\11.机械臂\main.c"
 132  0252  0700     E  	mov a,rh
文件：main.c       编译器版本 HGASM 0202 页次16

 132  0253  0080     E  	mov _builtin_holtek_mant1[2],a
 132  0254  0700     E  	mov a,rg
 132  0255  0080     E  	mov _builtin_holtek_mant1[1],a
 132  0256  0700     E  	mov a,rf
 132  0257  0080     E  	mov _builtin_holtek_mant1[0],a
 132  0258  0FC0        	mov a,192
 132  0259  0080     E  	mov _builtin_holtek_mant2[2],a
 132  025A  0F00        	mov a,0
 132  025B  0080     E  	mov _builtin_holtek_mant2[1],a
 132  025C  0F00        	mov a,0
 132  025D  0080     E  	mov _builtin_holtek_mant2[0],a
 132  025E              	fcall _builtin_holtek_ftmul
 132  0265  0700     E  	mov a,_builtin_holtek_mant1[2]
 132  0266  0080     E  	mov rh,a
 132  0267  0700     E  	mov a,_builtin_holtek_mant1[1]
 132  0268  0080     E  	mov rg,a
 132  0269  0700     E  	mov a,_builtin_holtek_mant1[0]
 132  026A  0080     E  	mov rf,a
 132  026B  0700     E  	mov a,rh
 132  026C  0080     E  	mov _builtin_holtek_mant1[2],a
 132  026D  0700     E  	mov a,rg
 132  026E  0080     E  	mov _builtin_holtek_mant1[1],a
 132  026F  0700     E  	mov a,rf
 132  0270  0080     E  	mov _builtin_holtek_mant1[0],a
 132  0271  0700     E  	mov a,re
 132  0272  0080     E  	mov _builtin_holtek_mant2[2],a
 132  0273  0700     E  	mov a,rd
 132  0274  0080     E  	mov _builtin_holtek_mant2[1],a
 132  0275  0700     E  	mov a,rc
 132  0276  0080     E  	mov _builtin_holtek_mant2[0],a
 132  0277              	fcall _builtin_holtek_ftmul
 132  027E  0700     E  	mov a,_builtin_holtek_mant1[2]
 132  027F  0080     E  	mov re,a
 132  0280  0700     E  	mov a,_builtin_holtek_mant1[1]
 132  0281  0080     E  	mov rd,a
 132  0282  0700     E  	mov a,_builtin_holtek_mant1[0]
 132  0283  0080     E  	mov rc,a
 132  0284  0700     R  	mov a,_MUP_6060_READ_2[2]
 132  0285  0080     E  	mov _builtin_holtek_mant1[2],a
 132  0286  0700     R  	mov a,_MUP_6060_READ_2[1]
 132  0287  0080     E  	mov _builtin_holtek_mant1[1],a
 132  0288  0700     R  	mov a,_MUP_6060_READ_2[0]
 132  0289  0080     E  	mov _builtin_holtek_mant1[0],a
 132  028A  0700     R  	mov a,_MUP_6060_READ_2[2]
 132  028B  0080     E  	mov _builtin_holtek_mant2[2],a
 132  028C  0700     R  	mov a,_MUP_6060_READ_2[1]
 132  028D  0080     E  	mov _builtin_holtek_mant2[1],a
 132  028E  0700     R  	mov a,_MUP_6060_READ_2[0]
 132  028F  0080     E  	mov _builtin_holtek_mant2[0],a
 132  0290              	fcall _builtin_holtek_ftadd
 132  0297  0700     E  	mov a,_builtin_holtek_mant1[2]
 132  0298  0080     E  	mov rh,a
 132  0299  0700     E  	mov a,_builtin_holtek_mant1[1]
 132  029A  0080     E  	mov rg,a
 132  029B  0700     E  	mov a,_builtin_holtek_mant1[0]
 132  029C  0080     E  	mov rf,a
 132  029D  0700     E  	mov a,rh
 132  029E  0080     E  	mov _builtin_holtek_mant1[2],a
 132  029F  0700     E  	mov a,rg
 132  02A0  0080     E  	mov _builtin_holtek_mant1[1],a
文件：main.c       编译器版本 HGASM 0202 页次17

 132  02A1  0700     E  	mov a,rf
 132  02A2  0080     E  	mov _builtin_holtek_mant1[0],a
 132  02A3  0700     R  	mov a,_MUP_6060_READ_2[6]
 132  02A4  0080     E  	mov _builtin_holtek_mant2[2],a
 132  02A5  0700     R  	mov a,_MUP_6060_READ_2[5]
 132  02A6  0080     E  	mov _builtin_holtek_mant2[1],a
 132  02A7  0700     R  	mov a,_MUP_6060_READ_2[4]
 132  02A8  0080     E  	mov _builtin_holtek_mant2[0],a
 132  02A9              	fcall _builtin_holtek_ftmul
 132  02B0  0700     E  	mov a,_builtin_holtek_mant1[2]
 132  02B1  0080     E  	mov rh,a
 132  02B2  0700     E  	mov a,_builtin_holtek_mant1[1]
 132  02B3  0080     E  	mov rg,a
 132  02B4  0700     E  	mov a,_builtin_holtek_mant1[0]
 132  02B5  0080     E  	mov rf,a
 132  02B6  0700     E  	mov a,re
 132  02B7  0080     E  	mov _builtin_holtek_mant1[2],a
 132  02B8  0700     E  	mov a,rd
 132  02B9  0080     E  	mov _builtin_holtek_mant1[1],a
 132  02BA  0700     E  	mov a,rc
 132  02BB  0080     E  	mov _builtin_holtek_mant1[0],a
 132  02BC  0700     E  	mov a,rh
 132  02BD  0080     E  	mov _builtin_holtek_mant2[2],a
 132  02BE  0700     E  	mov a,rg
 132  02BF  0080     E  	mov _builtin_holtek_mant2[1],a
 132  02C0  0700     E  	mov a,rf
 132  02C1  0080     E  	mov _builtin_holtek_mant2[0],a
 132  02C2              	fcall _builtin_holtek_ftadd
 132  02C9  0700     E  	mov a,_builtin_holtek_mant1[2]
 132  02CA  0080     E  	mov re,a
 132  02CB  0700     E  	mov a,_builtin_holtek_mant1[1]
 132  02CC  0080     E  	mov rd,a
 132  02CD  0700     E  	mov a,_builtin_holtek_mant1[0]
 132  02CE  0080     E  	mov rc,a
 132  02CF  0700     E  	mov a,rc
 132  02D0  0080     E  	mov _asin_2[1],a
 132  02D1  0700     E  	mov a,rd
 132  02D2  0080     E  	mov _asin_2[2],a
 132  02D3  0700     E  	mov a,re
 132  02D4  0080     E  	mov _asin_2[3],a
 132  02D5  1F00     E  	clr _asin_2[0]
 132  02D6              	fcall _asin
 132  02DD  0700     E  	mov a,rd
 132  02DE  0080     E  	mov _builtin_holtek_mant12p[0],a
 132  02DF  0700     E  	mov a,rc
 132  02E0  0080     E  	mov _builtin_holtek_mant1[2],a
 132  02E1  0700     E  	mov a,rb
 132  02E2  0080     E  	mov _builtin_holtek_mant1[1],a
 132  02E3  0700     E  	mov a,ra
 132  02E4  0080     E  	mov _builtin_holtek_mant1[0],a
 132  02E5  0F42        	mov a,66
 132  02E6  0080     E  	mov _builtin_holtek_mant12p[1],a
 132  02E7  0F65        	mov a,101
 132  02E8  0080     E  	mov _builtin_holtek_mant2[2],a
 132  02E9  0F33        	mov a,51
 132  02EA  0080     E  	mov _builtin_holtek_mant2[1],a
 132  02EB  0F33        	mov a,51
 132  02EC  0080     E  	mov _builtin_holtek_mant2[0],a
 132  02ED              	fcall _builtin_holtek_dtmul
 132  02F4  0700     E  	mov a,_builtin_holtek_mant12p[0]
文件：main.c       编译器版本 HGASM 0202 页次18

 132  02F5  0080     E  	mov rg,a
 132  02F6  0700     E  	mov a,_builtin_holtek_mant1[2]
 132  02F7  0080     E  	mov rf,a
 132  02F8  0700     E  	mov a,_builtin_holtek_mant1[1]
 132  02F9  0080     E  	mov re,a
 132  02FA  0700     E  	mov a,_builtin_holtek_mant1[0]
 132  02FB  0080     E  	mov rd,a
 132  02FC  0700     E  	mov a,rg
 132  02FD  0080     R  	mov _pitch[2],a
 132  02FE  0700     E  	mov a,rf
 132  02FF  0080     R  	mov _pitch[1],a
 132  0300  0700     E  	mov a,re
 132  0301  0080     R  	mov _pitch[0],a
 133  0302              #line 133 "c:\users\林斐\desktop\11.机械臂\main.c"
 133  0302  0700     R  	mov a,_q2[2]
 133  0303  0080     E  	mov _builtin_holtek_mant1[2],a
 133  0304  0700     R  	mov a,_q2[1]
 133  0305  0080     E  	mov _builtin_holtek_mant1[1],a
 133  0306  0700     R  	mov a,_q2[0]
 133  0307  0080     E  	mov _builtin_holtek_mant1[0],a
 133  0308  0700     R  	mov a,_q2[2]
 133  0309  0080     E  	mov _builtin_holtek_mant2[2],a
 133  030A  0700     R  	mov a,_q2[1]
 133  030B  0080     E  	mov _builtin_holtek_mant2[1],a
 133  030C  0700     R  	mov a,_q2[0]
 133  030D  0080     E  	mov _builtin_holtek_mant2[0],a
 133  030E              	fcall _builtin_holtek_ftadd
 133  0315  0700     E  	mov a,_builtin_holtek_mant1[2]
 133  0316  0080     E  	mov re,a
 133  0317  0700     E  	mov a,_builtin_holtek_mant1[1]
 133  0318  0080     E  	mov rd,a
 133  0319  0700     E  	mov a,_builtin_holtek_mant1[0]
 133  031A  0080     E  	mov rc,a
 133  031B  0700     R  	mov a,_q1[2]
 133  031C  0080     E  	mov _builtin_holtek_mant1[2],a
 133  031D  0700     R  	mov a,_q1[1]
 133  031E  0080     E  	mov _builtin_holtek_mant1[1],a
 133  031F  0700     R  	mov a,_q1[0]
 133  0320  0080     E  	mov _builtin_holtek_mant1[0],a
 133  0321  0FC0        	mov a,192
 133  0322  0080     E  	mov _builtin_holtek_mant2[2],a
 133  0323  0F00        	mov a,0
 133  0324  0080     E  	mov _builtin_holtek_mant2[1],a
 133  0325  0F00        	mov a,0
 133  0326  0080     E  	mov _builtin_holtek_mant2[0],a
 133  0327              	fcall _builtin_holtek_ftmul
 133  032E  0700     E  	mov a,_builtin_holtek_mant1[2]
 133  032F  0080     E  	mov rh,a
 133  0330  0700     E  	mov a,_builtin_holtek_mant1[1]
 133  0331  0080     E  	mov rg,a
 133  0332  0700     E  	mov a,_builtin_holtek_mant1[0]
 133  0333  0080     E  	mov rf,a
 133  0334  0700     E  	mov a,rh
 133  0335  0080     E  	mov _builtin_holtek_mant1[2],a
 133  0336  0700     E  	mov a,rg
 133  0337  0080     E  	mov _builtin_holtek_mant1[1],a
 133  0338  0700     E  	mov a,rf
 133  0339  0080     E  	mov _builtin_holtek_mant1[0],a
 133  033A  0700     R  	mov a,_q1[2]
 133  033B  0080     E  	mov _builtin_holtek_mant2[2],a
文件：main.c       编译器版本 HGASM 0202 页次19

 133  033C  0700     R  	mov a,_q1[1]
 133  033D  0080     E  	mov _builtin_holtek_mant2[1],a
 133  033E  0700     R  	mov a,_q1[0]
 133  033F  0080     E  	mov _builtin_holtek_mant2[0],a
 133  0340              	fcall _builtin_holtek_ftmul
 133  0347  0700     E  	mov a,_builtin_holtek_mant1[2]
 133  0348  0080     R  	mov _MUP_6060_READ_2[10],a
 133  0349  0700     E  	mov a,_builtin_holtek_mant1[1]
 133  034A  0080     R  	mov _MUP_6060_READ_2[9],a
 133  034B  0700     E  	mov a,_builtin_holtek_mant1[0]
 133  034C  0080     R  	mov _MUP_6060_READ_2[8],a
 133  034D  0700     E  	mov a,re
 133  034E  0080     E  	mov _builtin_holtek_mant1[2],a
 133  034F  0700     E  	mov a,rd
 133  0350  0080     E  	mov _builtin_holtek_mant1[1],a
 133  0351  0700     E  	mov a,rc
 133  0352  0080     E  	mov _builtin_holtek_mant1[0],a
 133  0353  0700     R  	mov a,_q2[2]
 133  0354  0080     E  	mov _builtin_holtek_mant2[2],a
 133  0355  0700     R  	mov a,_q2[1]
 133  0356  0080     E  	mov _builtin_holtek_mant2[1],a
 133  0357  0700     R  	mov a,_q2[0]
 133  0358  0080     E  	mov _builtin_holtek_mant2[0],a
 133  0359              	fcall _builtin_holtek_ftmul
 133  0360  0700     E  	mov a,_builtin_holtek_mant1[2]
 133  0361  0080     E  	mov rh,a
 133  0362  0700     E  	mov a,_builtin_holtek_mant1[1]
 133  0363  0080     E  	mov rg,a
 133  0364  0700     E  	mov a,_builtin_holtek_mant1[0]
 133  0365  0080     E  	mov rf,a
 133  0366  0700     R  	mov a,_MUP_6060_READ_2[10]
 133  0367  0080     E  	mov _builtin_holtek_mant1[2],a
 133  0368  0700     R  	mov a,_MUP_6060_READ_2[9]
 133  0369  0080     E  	mov _builtin_holtek_mant1[1],a
 133  036A  0700     R  	mov a,_MUP_6060_READ_2[8]
 133  036B  0080     E  	mov _builtin_holtek_mant1[0],a
 133  036C  0700     E  	mov a,rh
 133  036D  0080     E  	mov _builtin_holtek_mant2[2],a
 133  036E  0700     E  	mov a,rg
 133  036F  0080     E  	mov _builtin_holtek_mant2[1],a
 133  0370  0700     E  	mov a,rf
 133  0371  0080     E  	mov _builtin_holtek_mant2[0],a
 133  0372              	fcall _builtin_holtek_ftsub
 133  0379  0700     E  	mov a,_builtin_holtek_mant1[2]
 133  037A  0080     E  	mov rh,a
 133  037B  0700     E  	mov a,_builtin_holtek_mant1[1]
 133  037C  0080     E  	mov rg,a
 133  037D  0700     E  	mov a,_builtin_holtek_mant1[0]
 133  037E  0080     E  	mov rf,a
 133  037F  0700     E  	mov a,rh
 133  0380  0080     E  	mov _builtin_holtek_mant1[2],a
 133  0381  0700     E  	mov a,rg
 133  0382  0080     E  	mov _builtin_holtek_mant1[1],a
 133  0383  0700     E  	mov a,rf
 133  0384  0080     E  	mov _builtin_holtek_mant1[0],a
 133  0385  0F3F        	mov a,63
 133  0386  0080     E  	mov _builtin_holtek_mant2[2],a
 133  0387  0F80        	mov a,128
 133  0388  0080     E  	mov _builtin_holtek_mant2[1],a
 133  0389  0F00        	mov a,0
文件：main.c       编译器版本 HGASM 0202 页次20

 133  038A  0080     E  	mov _builtin_holtek_mant2[0],a
 133  038B              	fcall _builtin_holtek_ftadd
 133  0392  0700     E  	mov a,_builtin_holtek_mant1[2]
 133  0393  0080     E  	mov rh,a
 133  0394  0700     E  	mov a,_builtin_holtek_mant1[1]
 133  0395  0080     E  	mov rg,a
 133  0396  0700     E  	mov a,_builtin_holtek_mant1[0]
 133  0397  0080     E  	mov rf,a
 133  0398  0700     E  	mov a,rf
 133  0399  0080     E  	mov _atan2_2[5],a
 133  039A  0700     E  	mov a,rg
 133  039B  0080     E  	mov _atan2_2[6],a
 133  039C  0700     E  	mov a,rh
 133  039D  0080     E  	mov _atan2_2[7],a
 133  039E  1F00     E  	clr _atan2_2[4]
 133  039F  0700     E  	mov a,re
 133  03A0  0080     E  	mov _builtin_holtek_mant1[2],a
 133  03A1  0700     E  	mov a,rd
 133  03A2  0080     E  	mov _builtin_holtek_mant1[1],a
 133  03A3  0700     E  	mov a,rc
 133  03A4  0080     E  	mov _builtin_holtek_mant1[0],a
 133  03A5  0700     R  	mov a,_q3[2]
 133  03A6  0080     E  	mov _builtin_holtek_mant2[2],a
 133  03A7  0700     R  	mov a,_q3[1]
 133  03A8  0080     E  	mov _builtin_holtek_mant2[1],a
 133  03A9  0700     R  	mov a,_q3[0]
 133  03AA  0080     E  	mov _builtin_holtek_mant2[0],a
 133  03AB              	fcall _builtin_holtek_ftmul
 133  03B2  0700     E  	mov a,_builtin_holtek_mant1[2]
 133  03B3  0080     E  	mov re,a
 133  03B4  0700     E  	mov a,_builtin_holtek_mant1[1]
 133  03B5  0080     E  	mov rd,a
 133  03B6  0700     E  	mov a,_builtin_holtek_mant1[0]
 133  03B7  0080     E  	mov rc,a
 133  03B8  0700     R  	mov a,_q0[0]
 133  03B9  0080     E  	mov rf,a
 133  03BA  0700     R  	mov a,_q0[1]
 133  03BB  0080     E  	mov rg,a
 133  03BC  0700     R  	mov a,_q0[2]
 133  03BD  0080     E  	mov rh,a
 133  03BE  0700     E  	mov a,rh
 133  03BF  0080     E  	mov _builtin_holtek_mant1[2],a
 133  03C0  0700     E  	mov a,rg
 133  03C1  0080     E  	mov _builtin_holtek_mant1[1],a
 133  03C2  0700     E  	mov a,rf
 133  03C3  0080     E  	mov _builtin_holtek_mant1[0],a
 133  03C4  0700     E  	mov a,rh
 133  03C5  0080     E  	mov _builtin_holtek_mant2[2],a
 133  03C6  0700     E  	mov a,rg
 133  03C7  0080     E  	mov _builtin_holtek_mant2[1],a
 133  03C8  0700     E  	mov a,rf
 133  03C9  0080     E  	mov _builtin_holtek_mant2[0],a
 133  03CA              	fcall _builtin_holtek_ftadd
 133  03D1  0700     E  	mov a,_builtin_holtek_mant1[2]
 133  03D2  0080     E  	mov rh,a
 133  03D3  0700     E  	mov a,_builtin_holtek_mant1[1]
 133  03D4  0080     E  	mov rg,a
 133  03D5  0700     E  	mov a,_builtin_holtek_mant1[0]
 133  03D6  0080     E  	mov rf,a
 133  03D7  0700     E  	mov a,rh
文件：main.c       编译器版本 HGASM 0202 页次21

 133  03D8  0080     E  	mov _builtin_holtek_mant1[2],a
 133  03D9  0700     E  	mov a,rg
 133  03DA  0080     E  	mov _builtin_holtek_mant1[1],a
 133  03DB  0700     E  	mov a,rf
 133  03DC  0080     E  	mov _builtin_holtek_mant1[0],a
 133  03DD  0700     R  	mov a,_q1[2]
 133  03DE  0080     E  	mov _builtin_holtek_mant2[2],a
 133  03DF  0700     R  	mov a,_q1[1]
 133  03E0  0080     E  	mov _builtin_holtek_mant2[1],a
 133  03E1  0700     R  	mov a,_q1[0]
 133  03E2  0080     E  	mov _builtin_holtek_mant2[0],a
 133  03E3              	fcall _builtin_holtek_ftmul
 133  03EA  0700     E  	mov a,_builtin_holtek_mant1[2]
 133  03EB  0080     E  	mov rh,a
 133  03EC  0700     E  	mov a,_builtin_holtek_mant1[1]
 133  03ED  0080     E  	mov rg,a
 133  03EE  0700     E  	mov a,_builtin_holtek_mant1[0]
 133  03EF  0080     E  	mov rf,a
 133  03F0  0700     E  	mov a,re
 133  03F1  0080     E  	mov _builtin_holtek_mant1[2],a
 133  03F2  0700     E  	mov a,rd
 133  03F3  0080     E  	mov _builtin_holtek_mant1[1],a
 133  03F4  0700     E  	mov a,rc
 133  03F5  0080     E  	mov _builtin_holtek_mant1[0],a
 133  03F6  0700     E  	mov a,rh
 133  03F7  0080     E  	mov _builtin_holtek_mant2[2],a
 133  03F8  0700     E  	mov a,rg
 133  03F9  0080     E  	mov _builtin_holtek_mant2[1],a
 133  03FA  0700     E  	mov a,rf
 133  03FB  0080     E  	mov _builtin_holtek_mant2[0],a
 133  03FC              	fcall _builtin_holtek_ftadd
 133  0403  0700     E  	mov a,_builtin_holtek_mant1[2]
 133  0404  0080     E  	mov re,a
 133  0405  0700     E  	mov a,_builtin_holtek_mant1[1]
 133  0406  0080     E  	mov rd,a
 133  0407  0700     E  	mov a,_builtin_holtek_mant1[0]
 133  0408  0080     E  	mov rc,a
 133  0409  0700     E  	mov a,rc
 133  040A  0080     E  	mov _atan2_2[1],a
 133  040B  0700     E  	mov a,rd
 133  040C  0080     E  	mov _atan2_2[2],a
 133  040D  0700     E  	mov a,re
 133  040E  0080     E  	mov _atan2_2[3],a
 133  040F  1F00     E  	clr _atan2_2[0]
 133  0410              	fcall _atan2
 133  0417  0700     E  	mov a,rd
 133  0418  0080     E  	mov _builtin_holtek_mant12p[0],a
 133  0419  0700     E  	mov a,rc
 133  041A  0080     E  	mov _builtin_holtek_mant1[2],a
 133  041B  0700     E  	mov a,rb
 133  041C  0080     E  	mov _builtin_holtek_mant1[1],a
 133  041D  0700     E  	mov a,ra
 133  041E  0080     E  	mov _builtin_holtek_mant1[0],a
 133  041F  0F42        	mov a,66
 133  0420  0080     E  	mov _builtin_holtek_mant12p[1],a
 133  0421  0F65        	mov a,101
 133  0422  0080     E  	mov _builtin_holtek_mant2[2],a
 133  0423  0F33        	mov a,51
 133  0424  0080     E  	mov _builtin_holtek_mant2[1],a
 133  0425  0F33        	mov a,51
文件：main.c       编译器版本 HGASM 0202 页次22

 133  0426  0080     E  	mov _builtin_holtek_mant2[0],a
 133  0427              	fcall _builtin_holtek_dtmul
 133  042E  0700     E  	mov a,_builtin_holtek_mant12p[0]
 133  042F  0080     E  	mov rg,a
 133  0430  0700     E  	mov a,_builtin_holtek_mant1[2]
 133  0431  0080     E  	mov rf,a
 133  0432  0700     E  	mov a,_builtin_holtek_mant1[1]
 133  0433  0080     E  	mov re,a
 133  0434  0700     E  	mov a,_builtin_holtek_mant1[0]
 133  0435  0080     E  	mov rd,a
 133  0436  0700     E  	mov a,rg
 133  0437  0080     R  	mov _roll[2],a
 133  0438  0700     E  	mov a,rf
 133  0439  0080     R  	mov _roll[1],a
 133  043A  0700     E  	mov a,re
 133  043B  0080     R  	mov _roll[0],a
 134  043C              #line 134 "c:\users\林斐\desktop\11.机械臂\main.c"
 134  043C  0700     R  	mov a,_q0[2]
 134  043D  0080     E  	mov _builtin_holtek_mant1[2],a
 134  043E  0700     R  	mov a,_q0[1]
 134  043F  0080     E  	mov _builtin_holtek_mant1[1],a
 134  0440  0700     R  	mov a,_q0[0]
 134  0441  0080     E  	mov _builtin_holtek_mant1[0],a
 134  0442  0700     R  	mov a,_q0[2]
 134  0443  0080     E  	mov _builtin_holtek_mant2[2],a
 134  0444  0700     R  	mov a,_q0[1]
 134  0445  0080     E  	mov _builtin_holtek_mant2[1],a
 134  0446  0700     R  	mov a,_q0[0]
 134  0447  0080     E  	mov _builtin_holtek_mant2[0],a
 134  0448              	fcall _builtin_holtek_ftmul
 134  044F  0700     E  	mov a,_builtin_holtek_mant1[2]
 134  0450  0080     E  	mov rh,a
 134  0451  0700     E  	mov a,_builtin_holtek_mant1[1]
 134  0452  0080     E  	mov rg,a
 134  0453  0700     E  	mov a,_builtin_holtek_mant1[0]
 134  0454  0080     E  	mov rf,a
 134  0455  0700     R  	mov a,_q1[2]
 134  0456  0080     E  	mov _builtin_holtek_mant1[2],a
 134  0457  0700     R  	mov a,_q1[1]
 134  0458  0080     E  	mov _builtin_holtek_mant1[1],a
 134  0459  0700     R  	mov a,_q1[0]
 134  045A  0080     E  	mov _builtin_holtek_mant1[0],a
 134  045B  0700     R  	mov a,_q1[2]
 134  045C  0080     E  	mov _builtin_holtek_mant2[2],a
 134  045D  0700     R  	mov a,_q1[1]
 134  045E  0080     E  	mov _builtin_holtek_mant2[1],a
 134  045F  0700     R  	mov a,_q1[0]
 134  0460  0080     E  	mov _builtin_holtek_mant2[0],a
 134  0461              	fcall _builtin_holtek_ftmul
 134  0468  0700     E  	mov a,_builtin_holtek_mant1[2]
 134  0469  0080     E  	mov re,a
 134  046A  0700     E  	mov a,_builtin_holtek_mant1[1]
 134  046B  0080     E  	mov rd,a
 134  046C  0700     E  	mov a,_builtin_holtek_mant1[0]
 134  046D  0080     E  	mov rc,a
 134  046E  0700     E  	mov a,rh
 134  046F  0080     E  	mov _builtin_holtek_mant1[2],a
 134  0470  0700     E  	mov a,rg
 134  0471  0080     E  	mov _builtin_holtek_mant1[1],a
 134  0472  0700     E  	mov a,rf
文件：main.c       编译器版本 HGASM 0202 页次23

 134  0473  0080     E  	mov _builtin_holtek_mant1[0],a
 134  0474  0700     E  	mov a,re
 134  0475  0080     E  	mov _builtin_holtek_mant2[2],a
 134  0476  0700     E  	mov a,rd
 134  0477  0080     E  	mov _builtin_holtek_mant2[1],a
 134  0478  0700     E  	mov a,rc
 134  0479  0080     E  	mov _builtin_holtek_mant2[0],a
 134  047A              	fcall _builtin_holtek_ftadd
 134  0481  0700     E  	mov a,_builtin_holtek_mant1[2]
 134  0482  0080     E  	mov rh,a
 134  0483  0700     E  	mov a,_builtin_holtek_mant1[1]
 134  0484  0080     E  	mov rg,a
 134  0485  0700     E  	mov a,_builtin_holtek_mant1[0]
 134  0486  0080     E  	mov rf,a
 134  0487  0700     R  	mov a,_q2[2]
 134  0488  0080     E  	mov _builtin_holtek_mant1[2],a
 134  0489  0700     R  	mov a,_q2[1]
 134  048A  0080     E  	mov _builtin_holtek_mant1[1],a
 134  048B  0700     R  	mov a,_q2[0]
 134  048C  0080     E  	mov _builtin_holtek_mant1[0],a
 134  048D  0700     R  	mov a,_q2[2]
 134  048E  0080     E  	mov _builtin_holtek_mant2[2],a
 134  048F  0700     R  	mov a,_q2[1]
 134  0490  0080     E  	mov _builtin_holtek_mant2[1],a
 134  0491  0700     R  	mov a,_q2[0]
 134  0492  0080     E  	mov _builtin_holtek_mant2[0],a
 134  0493              	fcall _builtin_holtek_ftmul
 134  049A  0700     E  	mov a,_builtin_holtek_mant1[2]
 134  049B  0080     E  	mov re,a
 134  049C  0700     E  	mov a,_builtin_holtek_mant1[1]
 134  049D  0080     E  	mov rd,a
 134  049E  0700     E  	mov a,_builtin_holtek_mant1[0]
 134  049F  0080     E  	mov rc,a
 134  04A0  0700     E  	mov a,rh
 134  04A1  0080     E  	mov _builtin_holtek_mant1[2],a
 134  04A2  0700     E  	mov a,rg
 134  04A3  0080     E  	mov _builtin_holtek_mant1[1],a
 134  04A4  0700     E  	mov a,rf
 134  04A5  0080     E  	mov _builtin_holtek_mant1[0],a
 134  04A6  0700     E  	mov a,re
 134  04A7  0080     E  	mov _builtin_holtek_mant2[2],a
 134  04A8  0700     E  	mov a,rd
 134  04A9  0080     E  	mov _builtin_holtek_mant2[1],a
 134  04AA  0700     E  	mov a,rc
 134  04AB  0080     E  	mov _builtin_holtek_mant2[0],a
 134  04AC              	fcall _builtin_holtek_ftsub
 134  04B3  0700     E  	mov a,_builtin_holtek_mant1[2]
 134  04B4  0080     E  	mov rh,a
 134  04B5  0700     E  	mov a,_builtin_holtek_mant1[1]
 134  04B6  0080     E  	mov rg,a
 134  04B7  0700     E  	mov a,_builtin_holtek_mant1[0]
 134  04B8  0080     E  	mov rf,a
 134  04B9  0700     R  	mov a,_q3[2]
 134  04BA  0080     E  	mov _builtin_holtek_mant1[2],a
 134  04BB  0700     R  	mov a,_q3[1]
 134  04BC  0080     E  	mov _builtin_holtek_mant1[1],a
 134  04BD  0700     R  	mov a,_q3[0]
 134  04BE  0080     E  	mov _builtin_holtek_mant1[0],a
 134  04BF  0700     R  	mov a,_q3[2]
 134  04C0  0080     E  	mov _builtin_holtek_mant2[2],a
文件：main.c       编译器版本 HGASM 0202 页次24

 134  04C1  0700     R  	mov a,_q3[1]
 134  04C2  0080     E  	mov _builtin_holtek_mant2[1],a
 134  04C3  0700     R  	mov a,_q3[0]
 134  04C4  0080     E  	mov _builtin_holtek_mant2[0],a
 134  04C5              	fcall _builtin_holtek_ftmul
 134  04CC  0700     E  	mov a,_builtin_holtek_mant1[2]
 134  04CD  0080     E  	mov re,a
 134  04CE  0700     E  	mov a,_builtin_holtek_mant1[1]
 134  04CF  0080     E  	mov rd,a
 134  04D0  0700     E  	mov a,_builtin_holtek_mant1[0]
 134  04D1  0080     E  	mov rc,a
 134  04D2  0700     E  	mov a,rh
 134  04D3  0080     E  	mov _builtin_holtek_mant1[2],a
 134  04D4  0700     E  	mov a,rg
 134  04D5  0080     E  	mov _builtin_holtek_mant1[1],a
 134  04D6  0700     E  	mov a,rf
 134  04D7  0080     E  	mov _builtin_holtek_mant1[0],a
 134  04D8  0700     E  	mov a,re
 134  04D9  0080     E  	mov _builtin_holtek_mant2[2],a
 134  04DA  0700     E  	mov a,rd
 134  04DB  0080     E  	mov _builtin_holtek_mant2[1],a
 134  04DC  0700     E  	mov a,rc
 134  04DD  0080     E  	mov _builtin_holtek_mant2[0],a
 134  04DE              	fcall _builtin_holtek_ftsub
 134  04E5  0700     E  	mov a,_builtin_holtek_mant1[2]
 134  04E6  0080     E  	mov re,a
 134  04E7  0700     E  	mov a,_builtin_holtek_mant1[1]
 134  04E8  0080     E  	mov rd,a
 134  04E9  0700     E  	mov a,_builtin_holtek_mant1[0]
 134  04EA  0080     E  	mov rc,a
 134  04EB  0700     E  	mov a,rc
 134  04EC  0080     E  	mov _atan2_2[5],a
 134  04ED  0700     E  	mov a,rd
 134  04EE  0080     E  	mov _atan2_2[6],a
 134  04EF  0700     E  	mov a,re
 134  04F0  0080     E  	mov _atan2_2[7],a
 134  04F1  1F00     E  	clr _atan2_2[4]
 134  04F2  0700     R  	mov a,_q1[2]
 134  04F3  0080     E  	mov _builtin_holtek_mant1[2],a
 134  04F4  0700     R  	mov a,_q1[1]
 134  04F5  0080     E  	mov _builtin_holtek_mant1[1],a
 134  04F6  0700     R  	mov a,_q1[0]
 134  04F7  0080     E  	mov _builtin_holtek_mant1[0],a
 134  04F8  0700     R  	mov a,_q2[2]
 134  04F9  0080     E  	mov _builtin_holtek_mant2[2],a
 134  04FA  0700     R  	mov a,_q2[1]
 134  04FB  0080     E  	mov _builtin_holtek_mant2[1],a
 134  04FC  0700     R  	mov a,_q2[0]
 134  04FD  0080     E  	mov _builtin_holtek_mant2[0],a
 134  04FE              	fcall _builtin_holtek_ftmul
 134  0505  0700     E  	mov a,_builtin_holtek_mant1[2]
 134  0506  0080     E  	mov re,a
 134  0507  0700     E  	mov a,_builtin_holtek_mant1[1]
 134  0508  0080     E  	mov rd,a
 134  0509  0700     E  	mov a,_builtin_holtek_mant1[0]
 134  050A  0080     E  	mov rc,a
 134  050B  0700     R  	mov a,_q0[2]
 134  050C  0080     E  	mov _builtin_holtek_mant1[2],a
 134  050D  0700     R  	mov a,_q0[1]
 134  050E  0080     E  	mov _builtin_holtek_mant1[1],a
文件：main.c       编译器版本 HGASM 0202 页次25

 134  050F  0700     R  	mov a,_q0[0]
 134  0510  0080     E  	mov _builtin_holtek_mant1[0],a
 134  0511  0700     R  	mov a,_q3[2]
 134  0512  0080     E  	mov _builtin_holtek_mant2[2],a
 134  0513  0700     R  	mov a,_q3[1]
 134  0514  0080     E  	mov _builtin_holtek_mant2[1],a
 134  0515  0700     R  	mov a,_q3[0]
 134  0516  0080     E  	mov _builtin_holtek_mant2[0],a
 134  0517              	fcall _builtin_holtek_ftmul
 134  051E  0700     E  	mov a,_builtin_holtek_mant1[2]
 134  051F  0080     E  	mov rh,a
 134  0520  0700     E  	mov a,_builtin_holtek_mant1[1]
 134  0521  0080     E  	mov rg,a
 134  0522  0700     E  	mov a,_builtin_holtek_mant1[0]
 134  0523  0080     E  	mov rf,a
 134  0524  0700     E  	mov a,re
 134  0525  0080     E  	mov _builtin_holtek_mant1[2],a
 134  0526  0700     E  	mov a,rd
 134  0527  0080     E  	mov _builtin_holtek_mant1[1],a
 134  0528  0700     E  	mov a,rc
 134  0529  0080     E  	mov _builtin_holtek_mant1[0],a
 134  052A  0700     E  	mov a,rh
 134  052B  0080     E  	mov _builtin_holtek_mant2[2],a
 134  052C  0700     E  	mov a,rg
 134  052D  0080     E  	mov _builtin_holtek_mant2[1],a
 134  052E  0700     E  	mov a,rf
 134  052F  0080     E  	mov _builtin_holtek_mant2[0],a
 134  0530              	fcall _builtin_holtek_ftadd
 134  0537  0700     E  	mov a,_builtin_holtek_mant1[2]
 134  0538  0080     E  	mov re,a
 134  0539  0700     E  	mov a,_builtin_holtek_mant1[1]
 134  053A  0080     E  	mov rd,a
 134  053B  0700     E  	mov a,_builtin_holtek_mant1[0]
 134  053C  0080     E  	mov rc,a
 134  053D  0700     E  	mov a,re
 134  053E  0080     E  	mov _builtin_holtek_mant1[2],a
 134  053F  0700     E  	mov a,rd
 134  0540  0080     E  	mov _builtin_holtek_mant1[1],a
 134  0541  0700     E  	mov a,rc
 134  0542  0080     E  	mov _builtin_holtek_mant1[0],a
 134  0543  0700     E  	mov a,re
 134  0544  0080     E  	mov _builtin_holtek_mant2[2],a
 134  0545  0700     E  	mov a,rd
 134  0546  0080     E  	mov _builtin_holtek_mant2[1],a
 134  0547  0700     E  	mov a,rc
 134  0548  0080     E  	mov _builtin_holtek_mant2[0],a
 134  0549              	fcall _builtin_holtek_ftadd
 134  0550  0700     E  	mov a,_builtin_holtek_mant1[2]
 134  0551  0080     E  	mov re,a
 134  0552  0700     E  	mov a,_builtin_holtek_mant1[1]
 134  0553  0080     E  	mov rd,a
 134  0554  0700     E  	mov a,_builtin_holtek_mant1[0]
 134  0555  0080     E  	mov rc,a
 134  0556  0700     E  	mov a,rc
 134  0557  0080     E  	mov _atan2_2[1],a
 134  0558  0700     E  	mov a,rd
 134  0559  0080     E  	mov _atan2_2[2],a
 134  055A  0700     E  	mov a,re
 134  055B  0080     E  	mov _atan2_2[3],a
 134  055C  1F00     E  	clr _atan2_2[0]
文件：main.c       编译器版本 HGASM 0202 页次26

 134  055D              	fcall _atan2
 134  0564  0700     E  	mov a,rd
 134  0565  0080     E  	mov _builtin_holtek_mant12p[0],a
 134  0566  0700     E  	mov a,rc
 134  0567  0080     E  	mov _builtin_holtek_mant1[2],a
 134  0568  0700     E  	mov a,rb
 134  0569  0080     E  	mov _builtin_holtek_mant1[1],a
 134  056A  0700     E  	mov a,ra
 134  056B  0080     E  	mov _builtin_holtek_mant1[0],a
 134  056C  0F42        	mov a,66
 134  056D  0080     E  	mov _builtin_holtek_mant12p[1],a
 134  056E  0F65        	mov a,101
 134  056F  0080     E  	mov _builtin_holtek_mant2[2],a
 134  0570  0F33        	mov a,51
 134  0571  0080     E  	mov _builtin_holtek_mant2[1],a
 134  0572  0F33        	mov a,51
 134  0573  0080     E  	mov _builtin_holtek_mant2[0],a
 134  0574              	fcall _builtin_holtek_dtmul
 134  057B  0700     E  	mov a,_builtin_holtek_mant12p[0]
 134  057C  0080     E  	mov rg,a
 134  057D  0700     E  	mov a,_builtin_holtek_mant1[2]
 134  057E  0080     E  	mov rf,a
 134  057F  0700     E  	mov a,_builtin_holtek_mant1[1]
 134  0580  0080     E  	mov re,a
 134  0581  0700     E  	mov a,_builtin_holtek_mant1[0]
 134  0582  0080     E  	mov rd,a
 134  0583  0700     E  	mov a,rg
 134  0584  0080     R  	mov _yaw[2],a
 134  0585  0700     E  	mov a,rf
 134  0586  0080     R  	mov _yaw[1],a
 134  0587  0700     E  	mov a,re
 134  0588  0080     R  	mov _yaw[0],a
 149  0589              #line 149 "c:\users\林斐\desktop\11.机械臂\main.c"
 149  0589  0F00     R  	mov a,low offset _LC0
 149  058A  0080     E  	mov _send_buff_2[0],a
 149  058B  0F00     R  	mov a,high offset _LC0
 149  058C  0080     E  	mov _send_buff_2[1],a
 149  058D              	fcall _send_buff
 150  0594              #line 150 "c:\users\林斐\desktop\11.机械臂\main.c"
 150  0594  0F00     R  	mov a,low offset _buff_text
 150  0595  0080     E  	mov _Float2String_2[3],a
 150  0596  0F00     R  	mov a,high offset _buff_text
 150  0597  0080     E  	mov _Float2String_2[4],a
 150  0598  0700     R  	mov a,_pitch[0]
 150  0599  0080     E  	mov _Float2String_2[0],a
 150  059A  0700     R  	mov a,_pitch[1]
 150  059B  0080     E  	mov _Float2String_2[1],a
 150  059C  0700     R  	mov a,_pitch[2]
 150  059D  0080     E  	mov _Float2String_2[2],a
 150  059E              	fcall _Float2String
 150  05A5  0700     E  	mov a,ra
 150  05A6  0080     E  	mov _send_buff_2[0],a
 150  05A7  0700     E  	mov a,rb
 150  05A8  0080     E  	mov _send_buff_2[1],a
 150  05A9              	fcall _send_buff
 152  05B0              #line 152 "c:\users\林斐\desktop\11.机械臂\main.c"
 152  05B0  0F00     R  	mov a,low offset _LC1
 152  05B1  0080     E  	mov _send_buff_2[0],a
 152  05B2  0F00     R  	mov a,high offset _LC1
 152  05B3  0080     E  	mov _send_buff_2[1],a
文件：main.c       编译器版本 HGASM 0202 页次27

 152  05B4              	fcall _send_buff
 153  05BB              #line 153 "c:\users\林斐\desktop\11.机械臂\main.c"
 153  05BB  0F00     R  	mov a,low offset _buff_text
 153  05BC  0080     E  	mov _Float2String_2[3],a
 153  05BD  0F00     R  	mov a,high offset _buff_text
 153  05BE  0080     E  	mov _Float2String_2[4],a
 153  05BF  0700     R  	mov a,_roll[0]
 153  05C0  0080     E  	mov _Float2String_2[0],a
 153  05C1  0700     R  	mov a,_roll[1]
 153  05C2  0080     E  	mov _Float2String_2[1],a
 153  05C3  0700     R  	mov a,_roll[2]
 153  05C4  0080     E  	mov _Float2String_2[2],a
 153  05C5              	fcall _Float2String
 153  05CC  0700     E  	mov a,ra
 153  05CD  0080     E  	mov _send_buff_2[0],a
 153  05CE  0700     E  	mov a,rb
 153  05CF  0080     E  	mov _send_buff_2[1],a
 153  05D0              	fcall _send_buff
 155  05D7              #line 155 "c:\users\林斐\desktop\11.机械臂\main.c"
 155  05D7  0F00     R  	mov a,low offset _LC2
 155  05D8  0080     E  	mov _send_buff_2[0],a
 155  05D9  0F00     R  	mov a,high offset _LC2
 155  05DA  0080     E  	mov _send_buff_2[1],a
 155  05DB              	fcall _send_buff
 156  05E2              #line 156 "c:\users\林斐\desktop\11.机械臂\main.c"
 156  05E2  0F00     R  	mov a,low offset _buff_text
 156  05E3  0080     E  	mov _Float2String_2[3],a
 156  05E4  0F00     R  	mov a,high offset _buff_text
 156  05E5  0080     E  	mov _Float2String_2[4],a
 156  05E6  0700     R  	mov a,_yaw[0]
 156  05E7  0080     E  	mov _Float2String_2[0],a
 156  05E8  0700     R  	mov a,_yaw[1]
 156  05E9  0080     E  	mov _Float2String_2[1],a
 156  05EA  0700     R  	mov a,_yaw[2]
 156  05EB  0080     E  	mov _Float2String_2[2],a
 156  05EC              	fcall _Float2String
 156  05F3  0700     E  	mov a,ra
 156  05F4  0080     E  	mov _send_buff_2[0],a
 156  05F5  0700     E  	mov a,rb
 156  05F6  0080     E  	mov _send_buff_2[1],a
 156  05F7              	fcall _send_buff
 157  05FE              #line 157 "c:\users\林斐\desktop\11.机械臂\main.c"
 157  05FE  0F00     R  	mov a,low offset _LC3
 157  05FF  0080     E  	mov _send_buff_2[0],a
 157  0600  0F00     R  	mov a,high offset _LC3
 157  0601  0080     E  	mov _send_buff_2[1],a
 157  0602              	fcall _send_buff
 157  0609              _L18:
 157  0609  0003        	ret
 157  060A              _MUP_6060_READ endp
 157  060A              #line 157 "c:\users\林斐\desktop\11.机械臂\main.c"
 157  060A              #pragma debug scope 1 1
 157  060A              ___ptm0c0 equ [70]
 157  060A              ___stm0c0 equ [78]
 157  000E              @crom	.section 'crom'
 157  000E              _LC4:
 157  000E              	db 020h,020h,020h,00h
 157  0010              public _Control_Angle
 157  0010              #pragma debug scope 7 1
 165  0010              #line 165 "c:\users\林斐\desktop\11.机械臂\main.c"
文件：main.c       编译器版本 HGASM 0202 页次28

 165  0000              _Control_Angle .section 'code'
 165  0000              _Control_Angle proc
 166  0000              #line 166 "c:\users\林斐\desktop\11.机械臂\main.c"
 166  0000  0700     R  	mov a,_mechanical_delay[0]
 166  0001  0500     R  	or a,_mechanical_delay[1]
 166  0002  390A        	snz z
 166  0003  2800     R  	jmp _L29
 167  0004              #line 167 "c:\users\林斐\desktop\11.机械臂\main.c"
 167  0004  0F01        	mov a,1
 167  0005  0080     R  	mov _mechanical_delay[0],a
 167  0006  1F00     R  	clr _mechanical_delay[1]
 169  0007              #line 169 "c:\users\林斐\desktop\11.机械臂\main.c"
 169  0007  0700     R  	mov a,_Bluetooth[0]
 169  0008  0A52        	sub a,82
 169  0009  390A        	snz z
 169  000A  2800     R  	jmp _L32
 171  000B              #line 171 "c:\users\林斐\desktop\11.机械臂\main.c"
 171  000B  1F00     R  	clr _Bluetooth[0]
 172  000C              #line 172 "c:\users\林斐\desktop\11.机械臂\main.c"
 172  000C  0700     R  	mov a,_pos0[0]
 172  000D  0080     E  	mov rb,a
 172  000E  0700     R  	mov a,_pos0[1]
 172  000F  0080     E  	mov rc,a
 172  0010  0F09        	mov a,9
 172  0011  0200     E  	sub a,rb
 172  0012  0F00        	mov a,0
 172  0013  1200     E  	sbc a,rc
 172  0014  3B8A        	snz sc
 172  0015  2800     R  	jmp _L32
 174  0016              #line 174 "c:\users\林斐\desktop\11.机械臂\main.c"
 174  0016  31C6        	set [70].3
 175  0017              #line 175 "c:\users\林斐\desktop\11.机械臂\main.c"
 175  0017  0FFF        	mov a,255
 175  0018  0380     E  	addm a,rb
 175  0019  0FFF        	mov a,255
 175  001A  1380     E  	adcm a,rc
 175  001B  0700     E  	mov a,rb
 175  001C  0080     R  	mov _pos0[0],a
 175  001D  0700     E  	mov a,rc
 175  001E  0080     R  	mov _pos0[1],a
 176  001F              #line 176 "c:\users\林斐\desktop\11.机械臂\main.c"
 176  001F  0700     E  	mov a,rb
 176  0020  0080     E  	mov _PWM_Change_0_2[0],a
 176  0021  0700     E  	mov a,rc
 176  0022  0080     E  	mov _PWM_Change_0_2[1],a
 176  0023              	fcall _PWM_Change_0
 177  002A              #line 177 "c:\users\林斐\desktop\11.机械臂\main.c"
 177  002A  0F0A        	mov a,10
 177  002B  0080     E  	mov _delay_ms_2[0],a
 177  002C  1F00     E  	clr _delay_ms_2[1]
 177  002D              	fcall _delay_ms
 178  0034              #line 178 "c:\users\林斐\desktop\11.机械臂\main.c"
 178  0034  35C6        	clr [70].3
 178  0035              _L32:
 181  0035              #line 181 "c:\users\林斐\desktop\11.机械臂\main.c"
 181  0035  0700     R  	mov a,_Bluetooth[0]
 181  0036  0A4C        	sub a,76
 181  0037  390A        	snz z
 181  0038  2800     R  	jmp _L35
 183  0039              #line 183 "c:\users\林斐\desktop\11.机械臂\main.c"
文件：main.c       编译器版本 HGASM 0202 页次29

 183  0039  1F00     R  	clr _Bluetooth[0]
 184  003A              #line 184 "c:\users\林斐\desktop\11.机械臂\main.c"
 184  003A  0700     R  	mov a,_pos0[0]
 184  003B  0080     E  	mov rb,a
 184  003C  0700     R  	mov a,_pos0[1]
 184  003D  0080     E  	mov rc,a
 184  003E  0FAA        	mov a,170
 184  003F  0200     E  	sub a,rb
 184  0040  0F00        	mov a,0
 184  0041  1200     E  	sbc a,rc
 184  0042  3F8A        	sz sc
 184  0043  2800     R  	jmp _L35
 186  0044              #line 186 "c:\users\林斐\desktop\11.机械臂\main.c"
 186  0044  31C6        	set [70].3
 187  0045              #line 187 "c:\users\林斐\desktop\11.机械臂\main.c"
 187  0045  1480     E  	inc rb
 187  0046  3D0A        	sz z
 187  0047  1480     E  	inc rc
 187  0048  0700     E  	mov a,rb
 187  0049  0080     R  	mov _pos0[0],a
 187  004A  0700     E  	mov a,rc
 187  004B  0080     R  	mov _pos0[1],a
 188  004C              #line 188 "c:\users\林斐\desktop\11.机械臂\main.c"
 188  004C  0700     E  	mov a,rb
 188  004D  0080     E  	mov _PWM_Change_0_2[0],a
 188  004E  0700     E  	mov a,rc
 188  004F  0080     E  	mov _PWM_Change_0_2[1],a
 188  0050              	fcall _PWM_Change_0
 189  0057              #line 189 "c:\users\林斐\desktop\11.机械臂\main.c"
 189  0057  0F0A        	mov a,10
 189  0058  0080     E  	mov _delay_ms_2[0],a
 189  0059  1F00     E  	clr _delay_ms_2[1]
 189  005A              	fcall _delay_ms
 190  0061              #line 190 "c:\users\林斐\desktop\11.机械臂\main.c"
 190  0061  35C6        	clr [70].3
 190  0062              _L35:
 194  0062              #line 194 "c:\users\林斐\desktop\11.机械臂\main.c"
 194  0062  0700     R  	mov a,_Bluetooth[0]
 194  0063  0A44        	sub a,68
 194  0064  390A        	snz z
 194  0065  2800     R  	jmp _L37
 196  0066              #line 196 "c:\users\林斐\desktop\11.机械臂\main.c"
 196  0066  0700     R  	mov a,_pos1[0]
 196  0067  0080     E  	mov rb,a
 196  0068  0700     R  	mov a,_pos1[1]
 196  0069  0080     E  	mov rc,a
 196  006A  0F09        	mov a,9
 196  006B  0200     E  	sub a,rb
 196  006C  0F00        	mov a,0
 196  006D  1200     E  	sbc a,rc
 196  006E  3B8A        	snz sc
 196  006F  2800     R  	jmp _L37
 198  0070              #line 198 "c:\users\林斐\desktop\11.机械臂\main.c"
 198  0070  1F00     R  	clr _Bluetooth[0]
 199  0071              #line 199 "c:\users\林斐\desktop\11.机械臂\main.c"
 199  0071  0FFF        	mov a,255
 199  0072  0380     E  	addm a,rb
 199  0073  0FFF        	mov a,255
 199  0074  1380     E  	adcm a,rc
 199  0075  0700     E  	mov a,rb
文件：main.c       编译器版本 HGASM 0202 页次30

 199  0076  0080     R  	mov _pos1[0],a
 199  0077  0700     E  	mov a,rc
 199  0078  0080     R  	mov _pos1[1],a
 200  0079              #line 200 "c:\users\林斐\desktop\11.机械臂\main.c"
 200  0079  0700     E  	mov a,rb
 200  007A  0080     E  	mov _PWM_Change_1_2[0],a
 200  007B  0700     E  	mov a,rc
 200  007C  0080     E  	mov _PWM_Change_1_2[1],a
 200  007D              	fcall _PWM_Change_1
 201  0084              #line 201 "c:\users\林斐\desktop\11.机械臂\main.c"
 201  0084  0F0A        	mov a,10
 201  0085  0080     E  	mov _delay_ms_2[0],a
 201  0086  1F00     E  	clr _delay_ms_2[1]
 201  0087              	fcall _delay_ms
 201  008E              _L37:
 204  008E              #line 204 "c:\users\林斐\desktop\11.机械臂\main.c"
 204  008E  0700     R  	mov a,_Bluetooth[0]
 204  008F  0A55        	sub a,85
 204  0090  390A        	snz z
 204  0091  2800     R  	jmp _L39
 206  0092              #line 206 "c:\users\林斐\desktop\11.机械臂\main.c"
 206  0092  1F00     R  	clr _Bluetooth[0]
 207  0093              #line 207 "c:\users\林斐\desktop\11.机械臂\main.c"
 207  0093  0700     R  	mov a,_pos1[0]
 207  0094  0080     E  	mov rb,a
 207  0095  0700     R  	mov a,_pos1[1]
 207  0096  0080     E  	mov rc,a
 207  0097  0FAA        	mov a,170
 207  0098  0200     E  	sub a,rb
 207  0099  0F00        	mov a,0
 207  009A  1200     E  	sbc a,rc
 207  009B  3F8A        	sz sc
 207  009C  2800     R  	jmp _L39
 209  009D              #line 209 "c:\users\林斐\desktop\11.机械臂\main.c"
 209  009D  1480     E  	inc rb
 209  009E  3D0A        	sz z
 209  009F  1480     E  	inc rc
 209  00A0  0700     E  	mov a,rb
 209  00A1  0080     R  	mov _pos1[0],a
 209  00A2  0700     E  	mov a,rc
 209  00A3  0080     R  	mov _pos1[1],a
 210  00A4              #line 210 "c:\users\林斐\desktop\11.机械臂\main.c"
 210  00A4  0700     E  	mov a,rb
 210  00A5  0080     E  	mov _PWM_Change_1_2[0],a
 210  00A6  0700     E  	mov a,rc
 210  00A7  0080     E  	mov _PWM_Change_1_2[1],a
 210  00A8              	fcall _PWM_Change_1
 211  00AF              #line 211 "c:\users\林斐\desktop\11.机械臂\main.c"
 211  00AF  0F0A        	mov a,10
 211  00B0  0080     E  	mov _delay_ms_2[0],a
 211  00B1  1F00     E  	clr _delay_ms_2[1]
 211  00B2              	fcall _delay_ms
 211  00B9              _L39:
 215  00B9              #line 215 "c:\users\林斐\desktop\11.机械臂\main.c"
 215  00B9  0700     R  	mov a,_Bluetooth[0]
 215  00BA  0A42        	sub a,66
 215  00BB  390A        	snz z
 215  00BC  2800     R  	jmp _L42
 217  00BD              #line 217 "c:\users\林斐\desktop\11.机械臂\main.c"
 217  00BD  1F00     R  	clr _Bluetooth[0]
文件：main.c       编译器版本 HGASM 0202 页次31

 218  00BE              #line 218 "c:\users\林斐\desktop\11.机械臂\main.c"
 218  00BE  0700     R  	mov a,_pos2[0]
 218  00BF  0080     E  	mov rb,a
 218  00C0  0700     R  	mov a,_pos2[1]
 218  00C1  0080     E  	mov rc,a
 218  00C2  0F09        	mov a,9
 218  00C3  0200     E  	sub a,rb
 218  00C4  0F00        	mov a,0
 218  00C5  1200     E  	sbc a,rc
 218  00C6  3B8A        	snz sc
 218  00C7  2800     R  	jmp _L42
 220  00C8              #line 220 "c:\users\林斐\desktop\11.机械臂\main.c"
 220  00C8  0FFF        	mov a,255
 220  00C9  0380     E  	addm a,rb
 220  00CA  0FFF        	mov a,255
 220  00CB  1380     E  	adcm a,rc
 220  00CC  0700     E  	mov a,rb
 220  00CD  0080     R  	mov _pos2[0],a
 220  00CE  0700     E  	mov a,rc
 220  00CF  0080     R  	mov _pos2[1],a
 221  00D0              #line 221 "c:\users\林斐\desktop\11.机械臂\main.c"
 221  00D0  0700     E  	mov a,rb
 221  00D1  0080     E  	mov _PWM_Change_2_2[0],a
 221  00D2  0700     E  	mov a,rc
 221  00D3  0080     E  	mov _PWM_Change_2_2[1],a
 221  00D4              	fcall _PWM_Change_2
 222  00DB              #line 222 "c:\users\林斐\desktop\11.机械臂\main.c"
 222  00DB  0F0A        	mov a,10
 222  00DC  0080     E  	mov _delay_ms_2[0],a
 222  00DD  1F00     E  	clr _delay_ms_2[1]
 222  00DE              	fcall _delay_ms
 222  00E5              _L42:
 225  00E5              #line 225 "c:\users\林斐\desktop\11.机械臂\main.c"
 225  00E5  0700     R  	mov a,_Bluetooth[0]
 225  00E6  0A54        	sub a,84
 225  00E7  390A        	snz z
 225  00E8  2800     R  	jmp _L45
 227  00E9              #line 227 "c:\users\林斐\desktop\11.机械臂\main.c"
 227  00E9  1F00     R  	clr _Bluetooth[0]
 228  00EA              #line 228 "c:\users\林斐\desktop\11.机械臂\main.c"
 228  00EA  0700     R  	mov a,_pos2[0]
 228  00EB  0080     E  	mov rb,a
 228  00EC  0700     R  	mov a,_pos2[1]
 228  00ED  0080     E  	mov rc,a
 228  00EE  0FAA        	mov a,170
 228  00EF  0200     E  	sub a,rb
 228  00F0  0F00        	mov a,0
 228  00F1  1200     E  	sbc a,rc
 228  00F2  3F8A        	sz sc
 228  00F3  2800     R  	jmp _L45
 230  00F4              #line 230 "c:\users\林斐\desktop\11.机械臂\main.c"
 230  00F4  1480     E  	inc rb
 230  00F5  3D0A        	sz z
 230  00F6  1480     E  	inc rc
 230  00F7  0700     E  	mov a,rb
 230  00F8  0080     R  	mov _pos2[0],a
 230  00F9  0700     E  	mov a,rc
 230  00FA  0080     R  	mov _pos2[1],a
 231  00FB              #line 231 "c:\users\林斐\desktop\11.机械臂\main.c"
 231  00FB  0700     E  	mov a,rb
文件：main.c       编译器版本 HGASM 0202 页次32

 231  00FC  0080     E  	mov _PWM_Change_2_2[0],a
 231  00FD  0700     E  	mov a,rc
 231  00FE  0080     E  	mov _PWM_Change_2_2[1],a
 231  00FF              	fcall _PWM_Change_2
 232  0106              #line 232 "c:\users\林斐\desktop\11.机械臂\main.c"
 232  0106  0F0A        	mov a,10
 232  0107  0080     E  	mov _delay_ms_2[0],a
 232  0108  1F00     E  	clr _delay_ms_2[1]
 232  0109              	fcall _delay_ms
 232  0110              _L45:
 237  0110              #line 237 "c:\users\林斐\desktop\11.机械臂\main.c"
 237  0110  0700     R  	mov a,_Bluetooth[0]
 237  0111  0A45        	sub a,69
 237  0112  390A        	snz z
 237  0113  2800     R  	jmp _L48
 239  0114              #line 239 "c:\users\林斐\desktop\11.机械臂\main.c"
 239  0114  1F00     R  	clr _Bluetooth[0]
 240  0115              #line 240 "c:\users\林斐\desktop\11.机械臂\main.c"
 240  0115  0700     R  	mov a,_pos3[0]
 240  0116  0080     E  	mov rb,a
 240  0117  0700     R  	mov a,_pos3[1]
 240  0118  0080     E  	mov rc,a
 240  0119  3C00     E  	sz rc.7
 240  011A  2800     R  	jmp _L48
 242  011B              #line 242 "c:\users\林斐\desktop\11.机械臂\main.c"
 242  011B  31CE        	set [78].3
 243  011C              #line 243 "c:\users\林斐\desktop\11.机械臂\main.c"
 243  011C  0FFF        	mov a,255
 243  011D  0380     E  	addm a,rb
 243  011E  0FFF        	mov a,255
 243  011F  1380     E  	adcm a,rc
 243  0120  0700     E  	mov a,rb
 243  0121  0080     R  	mov _pos3[0],a
 243  0122  0700     E  	mov a,rc
 243  0123  0080     R  	mov _pos3[1],a
 244  0124              #line 244 "c:\users\林斐\desktop\11.机械臂\main.c"
 244  0124  0700     E  	mov a,rb
 244  0125  0080     E  	mov _PWM_Change_3_2[0],a
 244  0126  0700     E  	mov a,rc
 244  0127  0080     E  	mov _PWM_Change_3_2[1],a
 244  0128              	fcall _PWM_Change_3
 245  012F              #line 245 "c:\users\林斐\desktop\11.机械臂\main.c"
 245  012F  0F0A        	mov a,10
 245  0130  0080     E  	mov _delay_ms_2[0],a
 245  0131  1F00     E  	clr _delay_ms_2[1]
 245  0132              	fcall _delay_ms
 246  0139              #line 246 "c:\users\林斐\desktop\11.机械臂\main.c"
 246  0139  35CE        	clr [78].3
 246  013A              _L48:
 249  013A              #line 249 "c:\users\林斐\desktop\11.机械臂\main.c"
 249  013A  0700     R  	mov a,_Bluetooth[0]
 249  013B  0A41        	sub a,65
 249  013C  390A        	snz z
 249  013D  2800     R  	jmp _L51
 251  013E              #line 251 "c:\users\林斐\desktop\11.机械臂\main.c"
 251  013E  1F00     R  	clr _Bluetooth[0]
 252  013F              #line 252 "c:\users\林斐\desktop\11.机械臂\main.c"
 252  013F  0700     R  	mov a,_pos3[0]
 252  0140  0080     E  	mov rb,a
 252  0141  0700     R  	mov a,_pos3[1]
文件：main.c       编译器版本 HGASM 0202 页次33

 252  0142  0080     E  	mov rc,a
 252  0143  0FB4        	mov a,180
 252  0144  0200     E  	sub a,rb
 252  0145  0F00        	mov a,0
 252  0146  1200     E  	sbc a,rc
 252  0147  3F8A        	sz sc
 252  0148  2800     R  	jmp _L51
 254  0149              #line 254 "c:\users\林斐\desktop\11.机械臂\main.c"
 254  0149  31CE        	set [78].3
 255  014A              #line 255 "c:\users\林斐\desktop\11.机械臂\main.c"
 255  014A  1480     E  	inc rb
 255  014B  3D0A        	sz z
 255  014C  1480     E  	inc rc
 255  014D  0700     E  	mov a,rb
 255  014E  0080     R  	mov _pos3[0],a
 255  014F  0700     E  	mov a,rc
 255  0150  0080     R  	mov _pos3[1],a
 256  0151              #line 256 "c:\users\林斐\desktop\11.机械臂\main.c"
 256  0151  0700     E  	mov a,rb
 256  0152  0080     E  	mov _PWM_Change_3_2[0],a
 256  0153  0700     E  	mov a,rc
 256  0154  0080     E  	mov _PWM_Change_3_2[1],a
 256  0155              	fcall _PWM_Change_3
 257  015C              #line 257 "c:\users\林斐\desktop\11.机械臂\main.c"
 257  015C  0F0A        	mov a,10
 257  015D  0080     E  	mov _delay_ms_2[0],a
 257  015E  1F00     E  	clr _delay_ms_2[1]
 257  015F              	fcall _delay_ms
 258  0166              #line 258 "c:\users\林斐\desktop\11.机械臂\main.c"
 258  0166  35CE        	clr [78].3
 258  0167              _L51:
 262  0167              #line 262 "c:\users\林斐\desktop\11.机械臂\main.c"
 262  0167  0700     R  	mov a,_Bluetooth[0]
 262  0168  0A4D        	sub a,77
 262  0169  390A        	snz z
 262  016A  2800     R  	jmp _L53
 264  016B              #line 264 "c:\users\林斐\desktop\11.机械臂\main.c"
 264  016B  1F00     R  	clr _Bluetooth[0]
 265  016C              #line 265 "c:\users\林斐\desktop\11.机械臂\main.c"
 265  016C  0F5A        	mov a,90
 265  016D  0080     R  	mov _pos0[0],a
 265  016E  1F00     R  	clr _pos0[1]
 266  016F              #line 266 "c:\users\林斐\desktop\11.机械臂\main.c"
 266  016F  0F5A        	mov a,90
 266  0170  0080     R  	mov _pos1[0],a
 266  0171  1F00     R  	clr _pos1[1]
 267  0172              #line 267 "c:\users\林斐\desktop\11.机械臂\main.c"
 267  0172  0F5A        	mov a,90
 267  0173  0080     R  	mov _pos2[0],a
 267  0174  1F00     R  	clr _pos2[1]
 268  0175              #line 268 "c:\users\林斐\desktop\11.机械臂\main.c"
 268  0175  31C6        	set [70].3
 269  0176              #line 269 "c:\users\林斐\desktop\11.机械臂\main.c"
 269  0176  0F5A        	mov a,90
 269  0177  0080     E  	mov _PWM_Change_0_2[0],a
 269  0178  1F00     E  	clr _PWM_Change_0_2[1]
 269  0179              	fcall _PWM_Change_0
 270  0180              #line 270 "c:\users\林斐\desktop\11.机械臂\main.c"
 270  0180  0FF4        	mov a,-12
 270  0181  0080     E  	mov _delay_ms_2[0],a
文件：main.c       编译器版本 HGASM 0202 页次34

 270  0182  0F01        	mov a,1
 270  0183  0080     E  	mov _delay_ms_2[1],a
 270  0184              	fcall _delay_ms
 271  018B              #line 271 "c:\users\林斐\desktop\11.机械臂\main.c"
 271  018B  35C6        	clr [70].3
 272  018C              #line 272 "c:\users\林斐\desktop\11.机械臂\main.c"
 272  018C  0700     R  	mov a,_pos1[0]
 272  018D  0080     E  	mov _PWM_Change_1_2[0],a
 272  018E  0700     R  	mov a,_pos1[1]
 272  018F  0080     E  	mov _PWM_Change_1_2[1],a
 272  0190              	fcall _PWM_Change_1
 273  0197              #line 273 "c:\users\林斐\desktop\11.机械臂\main.c"
 273  0197  0FF4        	mov a,-12
 273  0198  0080     E  	mov _delay_ms_2[0],a
 273  0199  0F01        	mov a,1
 273  019A  0080     E  	mov _delay_ms_2[1],a
 273  019B              	fcall _delay_ms
 274  01A2              #line 274 "c:\users\林斐\desktop\11.机械臂\main.c"
 274  01A2  0700     R  	mov a,_pos2[0]
 274  01A3  0080     E  	mov _PWM_Change_2_2[0],a
 274  01A4  0700     R  	mov a,_pos2[1]
 274  01A5  0080     E  	mov _PWM_Change_2_2[1],a
 274  01A6              	fcall _PWM_Change_2
 275  01AD              #line 275 "c:\users\林斐\desktop\11.机械臂\main.c"
 275  01AD  0FF4        	mov a,-12
 275  01AE  0080     E  	mov _delay_ms_2[0],a
 275  01AF  0F01        	mov a,1
 275  01B0  0080     E  	mov _delay_ms_2[1],a
 275  01B1              	fcall _delay_ms
 275  01B8              _L53:
 279  01B8              #line 279 "c:\users\林斐\desktop\11.机械臂\main.c"
 279  01B8  0700     R  	mov a,_Bluetooth[0]
 279  01B9  0A47        	sub a,71
 279  01BA  390A        	snz z
 279  01BB  2800     R  	jmp _L54
 281  01BC              #line 281 "c:\users\林斐\desktop\11.机械臂\main.c"
 281  01BC  1F00     R  	clr _Bluetooth[0]
 282  01BD              #line 282 "c:\users\林斐\desktop\11.机械臂\main.c"
 282  01BD  0FAB        	mov a,-85
 282  01BE  0080     R  	mov _pos0[0],a
 282  01BF  1F00     R  	clr _pos0[1]
 283  01C0              #line 283 "c:\users\林斐\desktop\11.机械臂\main.c"
 283  01C0  0F87        	mov a,-121
 283  01C1  0080     R  	mov _pos1[0],a
 283  01C2  1F00     R  	clr _pos1[1]
 284  01C3              #line 284 "c:\users\林斐\desktop\11.机械臂\main.c"
 284  01C3  0F9B        	mov a,-101
 284  01C4  0080     R  	mov _pos2[0],a
 284  01C5  1F00     R  	clr _pos2[1]
 285  01C6              #line 285 "c:\users\林斐\desktop\11.机械臂\main.c"
 285  01C6  31C6        	set [70].3
 286  01C7              #line 286 "c:\users\林斐\desktop\11.机械臂\main.c"
 286  01C7  0FAB        	mov a,-85
 286  01C8  0080     E  	mov _PWM_Change_0_2[0],a
 286  01C9  1F00     E  	clr _PWM_Change_0_2[1]
 286  01CA              	fcall _PWM_Change_0
 287  01D1              #line 287 "c:\users\林斐\desktop\11.机械臂\main.c"
 287  01D1  0FF4        	mov a,-12
 287  01D2  0080     E  	mov _delay_ms_2[0],a
 287  01D3  0F01        	mov a,1
文件：main.c       编译器版本 HGASM 0202 页次35

 287  01D4  0080     E  	mov _delay_ms_2[1],a
 287  01D5              	fcall _delay_ms
 288  01DC              #line 288 "c:\users\林斐\desktop\11.机械臂\main.c"
 288  01DC  35C6        	clr [70].3
 289  01DD              #line 289 "c:\users\林斐\desktop\11.机械臂\main.c"
 289  01DD  0700     R  	mov a,_pos1[0]
 289  01DE  0080     E  	mov _PWM_Change_1_2[0],a
 289  01DF  0700     R  	mov a,_pos1[1]
 289  01E0  0080     E  	mov _PWM_Change_1_2[1],a
 289  01E1              	fcall _PWM_Change_1
 290  01E8              #line 290 "c:\users\林斐\desktop\11.机械臂\main.c"
 290  01E8  0FF4        	mov a,-12
 290  01E9  0080     E  	mov _delay_ms_2[0],a
 290  01EA  0F01        	mov a,1
 290  01EB  0080     E  	mov _delay_ms_2[1],a
 290  01EC              	fcall _delay_ms
 291  01F3              #line 291 "c:\users\林斐\desktop\11.机械臂\main.c"
 291  01F3  0700     R  	mov a,_pos2[0]
 291  01F4  0080     E  	mov _PWM_Change_2_2[0],a
 291  01F5  0700     R  	mov a,_pos2[1]
 291  01F6  0080     E  	mov _PWM_Change_2_2[1],a
 291  01F7              	fcall _PWM_Change_2
 292  01FE              #line 292 "c:\users\林斐\desktop\11.机械臂\main.c"
 292  01FE  0FF4        	mov a,-12
 292  01FF  0080     E  	mov _delay_ms_2[0],a
 292  0200  0F01        	mov a,1
 292  0201  0080     E  	mov _delay_ms_2[1],a
 292  0202              	fcall _delay_ms
 295  0209              #line 295 "c:\users\林斐\desktop\11.机械臂\main.c"
 295  0209  0F92        	mov a,-110
 295  020A  0080     R  	mov _pos1[0],a
 295  020B  1F00     R  	clr _pos1[1]
 296  020C              #line 296 "c:\users\林斐\desktop\11.机械臂\main.c"
 296  020C  0F90        	mov a,-112
 296  020D  0080     R  	mov _pos2[0],a
 296  020E  1F00     R  	clr _pos2[1]
 297  020F              #line 297 "c:\users\林斐\desktop\11.机械臂\main.c"
 297  020F  0F32        	mov a,50
 297  0210  0080     E  	mov _delay_ms_2[0],a
 297  0211  1F00     E  	clr _delay_ms_2[1]
 297  0212              	fcall _delay_ms
 298  0219              #line 298 "c:\users\林斐\desktop\11.机械臂\main.c"
 298  0219  35C6        	clr [70].3
 299  021A              #line 299 "c:\users\林斐\desktop\11.机械臂\main.c"
 299  021A  0700     R  	mov a,_pos1[0]
 299  021B  0080     E  	mov _PWM_Change_1_2[0],a
 299  021C  0700     R  	mov a,_pos1[1]
 299  021D  0080     E  	mov _PWM_Change_1_2[1],a
 299  021E              	fcall _PWM_Change_1
 300  0225              #line 300 "c:\users\林斐\desktop\11.机械臂\main.c"
 300  0225  0F32        	mov a,50
 300  0226  0080     E  	mov _delay_ms_2[0],a
 300  0227  1F00     E  	clr _delay_ms_2[1]
 300  0228              	fcall _delay_ms
 301  022F              #line 301 "c:\users\林斐\desktop\11.机械臂\main.c"
 301  022F  0700     R  	mov a,_pos2[0]
 301  0230  0080     E  	mov _PWM_Change_2_2[0],a
 301  0231  0700     R  	mov a,_pos2[1]
 301  0232  0080     E  	mov _PWM_Change_2_2[1],a
 301  0233              	fcall _PWM_Change_2
文件：main.c       编译器版本 HGASM 0202 页次36

 302  023A              #line 302 "c:\users\林斐\desktop\11.机械臂\main.c"
 302  023A  0F32        	mov a,50
 302  023B  0080     E  	mov _delay_ms_2[0],a
 302  023C  1F00     E  	clr _delay_ms_2[1]
 302  023D              	fcall _delay_ms
 302  0244              _L54:
 332  0244              #line 332 "c:\users\林斐\desktop\11.机械臂\main.c"
 332  0244  0700     R  	mov a,_Bluetooth[0]
 332  0245  0A53        	sub a,83
 332  0246  390A        	snz z
 332  0247  2800     R  	jmp _L56
 334  0248              #line 334 "c:\users\林斐\desktop\11.机械臂\main.c"
 334  0248  1F00     R  	clr _Bluetooth[0]
 335  0249              #line 335 "c:\users\林斐\desktop\11.机械臂\main.c"
 335  0249  0700     R  	mov a,_pos1[0]
 335  024A  0080     E  	mov rb,a
 335  024B  0700     R  	mov a,_pos1[1]
 335  024C  0080     E  	mov rc,a
 335  024D  0FB4        	mov a,180
 335  024E  0200     E  	sub a,rb
 335  024F  0F00        	mov a,0
 335  0250  1200     E  	sbc a,rc
 335  0251  3F8A        	sz sc
 335  0252  2800     R  	jmp _L56
 335  0253  0700     R  	mov a,_pos2[0]
 335  0254  0080     E  	mov rd,a
 335  0255  0700     R  	mov a,_pos2[1]
 335  0256  0080     E  	mov re,a
 335  0257  3C00     E  	sz re.7
 335  0258  2800     R  	jmp _L56
 337  0259              #line 337 "c:\users\林斐\desktop\11.机械臂\main.c"
 337  0259  1480     E  	inc rb
 337  025A  3D0A        	sz z
 337  025B  1480     E  	inc rc
 337  025C  0700     E  	mov a,rb
 337  025D  0080     R  	mov _pos1[0],a
 337  025E  0700     E  	mov a,rc
 337  025F  0080     R  	mov _pos1[1],a
 338  0260              #line 338 "c:\users\林斐\desktop\11.机械臂\main.c"
 338  0260  0FFF        	mov a,255
 338  0261  0300     E  	add a,rd
 338  0262  0080     R  	mov _pos2[0],a
 338  0263  0FFF        	mov a,255
 338  0264  1300     E  	adc a,re
 338  0265  0080     R  	mov _pos2[1],a
 339  0266              #line 339 "c:\users\林斐\desktop\11.机械臂\main.c"
 339  0266  0700     E  	mov a,rb
 339  0267  0080     E  	mov _PWM_Change_1_2[0],a
 339  0268  0700     E  	mov a,rc
 339  0269  0080     E  	mov _PWM_Change_1_2[1],a
 339  026A              	fcall _PWM_Change_1
 340  0271              #line 340 "c:\users\林斐\desktop\11.机械臂\main.c"
 340  0271  0700     R  	mov a,_pos2[0]
 340  0272  0080     E  	mov _PWM_Change_2_2[0],a
 340  0273  0700     R  	mov a,_pos2[1]
 340  0274  0080     E  	mov _PWM_Change_2_2[1],a
 340  0275              	fcall _PWM_Change_2
 341  027C              #line 341 "c:\users\林斐\desktop\11.机械臂\main.c"
 341  027C  0F0A        	mov a,10
 341  027D  0080     E  	mov _delay_ms_2[0],a
文件：main.c       编译器版本 HGASM 0202 页次37

 341  027E  1F00     E  	clr _delay_ms_2[1]
 341  027F              	fcall _delay_ms
 341  0286              _L56:
 345  0286              #line 345 "c:\users\林斐\desktop\11.机械臂\main.c"
 345  0286  0700     R  	mov a,_Bluetooth[0]
 345  0287  0A50        	sub a,80
 345  0288  390A        	snz z
 345  0289  2800     R  	jmp _L59
 347  028A              #line 347 "c:\users\林斐\desktop\11.机械臂\main.c"
 347  028A  1F00     R  	clr _Bluetooth[0]
 348  028B              #line 348 "c:\users\林斐\desktop\11.机械臂\main.c"
 348  028B  0700     R  	mov a,_pos2[0]
 348  028C  0080     E  	mov rd,a
 348  028D  0700     R  	mov a,_pos2[1]
 348  028E  0080     E  	mov re,a
 348  028F  0FB4        	mov a,180
 348  0290  0200     E  	sub a,rd
 348  0291  0F00        	mov a,0
 348  0292  1200     E  	sbc a,re
 348  0293  3F8A        	sz sc
 348  0294  2800     R  	jmp _L59
 348  0295  0700     R  	mov a,_pos1[0]
 348  0296  0080     E  	mov rb,a
 348  0297  0700     R  	mov a,_pos1[1]
 348  0298  0080     E  	mov rc,a
 348  0299  3C00     E  	sz rc.7
 348  029A  2800     R  	jmp _L59
 350  029B              #line 350 "c:\users\林斐\desktop\11.机械臂\main.c"
 350  029B  0FFF        	mov a,255
 350  029C  0380     E  	addm a,rb
 350  029D  0FFF        	mov a,255
 350  029E  1380     E  	adcm a,rc
 350  029F  0700     E  	mov a,rb
 350  02A0  0080     R  	mov _pos1[0],a
 350  02A1  0700     E  	mov a,rc
 350  02A2  0080     R  	mov _pos1[1],a
 351  02A3              #line 351 "c:\users\林斐\desktop\11.机械臂\main.c"
 351  02A3  0F01        	mov a,1
 351  02A4  0300     E  	add a,rd
 351  02A5  0080     R  	mov _pos2[0],a
 351  02A6  0F00        	mov a,0
 351  02A7  1300     E  	adc a,re
 351  02A8  0080     R  	mov _pos2[1],a
 352  02A9              #line 352 "c:\users\林斐\desktop\11.机械臂\main.c"
 352  02A9  0700     E  	mov a,rb
 352  02AA  0080     E  	mov _PWM_Change_1_2[0],a
 352  02AB  0700     E  	mov a,rc
 352  02AC  0080     E  	mov _PWM_Change_1_2[1],a
 352  02AD              	fcall _PWM_Change_1
 353  02B4              #line 353 "c:\users\林斐\desktop\11.机械臂\main.c"
 353  02B4  0700     R  	mov a,_pos2[0]
 353  02B5  0080     E  	mov _PWM_Change_2_2[0],a
 353  02B6  0700     R  	mov a,_pos2[1]
 353  02B7  0080     E  	mov _PWM_Change_2_2[1],a
 353  02B8              	fcall _PWM_Change_2
 354  02BF              #line 354 "c:\users\林斐\desktop\11.机械臂\main.c"
 354  02BF  0F0A        	mov a,10
 354  02C0  0080     E  	mov _delay_ms_2[0],a
 354  02C1  1F00     E  	clr _delay_ms_2[1]
 354  02C2              	fcall _delay_ms
文件：main.c       编译器版本 HGASM 0202 页次38

 354  02C9              _L59:
 358  02C9              #line 358 "c:\users\林斐\desktop\11.机械臂\main.c"
 358  02C9  0700     R  	mov a,_Bluetooth[0]
 358  02CA  0A43        	sub a,67
 358  02CB  390A        	snz z
 358  02CC  2800     R  	jmp _L62
 360  02CD              #line 360 "c:\users\林斐\desktop\11.机械臂\main.c"
 360  02CD  1F00     R  	clr _Bluetooth[0]
 361  02CE              #line 361 "c:\users\林斐\desktop\11.机械臂\main.c"
 361  02CE  0700     R  	mov a,_pos1[0]
 361  02CF  0080     E  	mov rb,a
 361  02D0  0700     R  	mov a,_pos1[1]
 361  02D1  0080     E  	mov rc,a
 361  02D2  0FB4        	mov a,180
 361  02D3  0200     E  	sub a,rb
 361  02D4  0F00        	mov a,0
 361  02D5  1200     E  	sbc a,rc
 361  02D6  3F8A        	sz sc
 361  02D7  2800     R  	jmp _L62
 361  02D8  0700     R  	mov a,_pos2[0]
 361  02D9  0080     E  	mov rd,a
 361  02DA  0700     R  	mov a,_pos2[1]
 361  02DB  0080     E  	mov re,a
 361  02DC  0FB4        	mov a,180
 361  02DD  0200     E  	sub a,rd
 361  02DE  0F00        	mov a,0
 361  02DF  1200     E  	sbc a,re
 361  02E0  3F8A        	sz sc
 361  02E1  2800     R  	jmp _L62
 363  02E2              #line 363 "c:\users\林斐\desktop\11.机械臂\main.c"
 363  02E2  1480     E  	inc rb
 363  02E3  3D0A        	sz z
 363  02E4  1480     E  	inc rc
 363  02E5  0700     E  	mov a,rb
 363  02E6  0080     R  	mov _pos1[0],a
 363  02E7  0700     E  	mov a,rc
 363  02E8  0080     R  	mov _pos1[1],a
 364  02E9              #line 364 "c:\users\林斐\desktop\11.机械臂\main.c"
 364  02E9  0F01        	mov a,1
 364  02EA  0300     E  	add a,rd
 364  02EB  0080     R  	mov _pos2[0],a
 364  02EC  0F00        	mov a,0
 364  02ED  1300     E  	adc a,re
 364  02EE  0080     R  	mov _pos2[1],a
 365  02EF              #line 365 "c:\users\林斐\desktop\11.机械臂\main.c"
 365  02EF  0700     E  	mov a,rb
 365  02F0  0080     E  	mov _PWM_Change_1_2[0],a
 365  02F1  0700     E  	mov a,rc
 365  02F2  0080     E  	mov _PWM_Change_1_2[1],a
 365  02F3              	fcall _PWM_Change_1
 366  02FA              #line 366 "c:\users\林斐\desktop\11.机械臂\main.c"
 366  02FA  0700     R  	mov a,_pos2[0]
 366  02FB  0080     E  	mov _PWM_Change_2_2[0],a
 366  02FC  0700     R  	mov a,_pos2[1]
 366  02FD  0080     E  	mov _PWM_Change_2_2[1],a
 366  02FE              	fcall _PWM_Change_2
 367  0305              #line 367 "c:\users\林斐\desktop\11.机械臂\main.c"
 367  0305  0F0A        	mov a,10
 367  0306  0080     E  	mov _delay_ms_2[0],a
 367  0307  1F00     E  	clr _delay_ms_2[1]
文件：main.c       编译器版本 HGASM 0202 页次39

 367  0308              	fcall _delay_ms
 367  030F              _L62:
 371  030F              #line 371 "c:\users\林斐\desktop\11.机械臂\main.c"
 371  030F  0700     R  	mov a,_pos0[0]
 371  0310  0080     E  	mov rb,a
 371  0311  0700     R  	mov a,_pos0[1]
 371  0312  0080     E  	mov rc,a
 371  0313  0700     R  	mov a,_pos0_old[0]
 371  0314  0200     E  	sub a,rb
 371  0315  0700     R  	mov a,_pos0_old[1]
 371  0316  1200     E  	sbc a,rc
 371  0317  3B0A        	snz cz
 371  0318  2800     R  	jmp _L64
 371  0319  0700     R  	mov a,_pos1_old[0]
 371  031A  0200     R  	sub a,_pos1[0]
 371  031B  0700     R  	mov a,_pos1_old[1]
 371  031C  1200     R  	sbc a,_pos1[1]
 371  031D  3B0A        	snz cz
 371  031E  2800     R  	jmp _L64
 371  031F  0700     R  	mov a,_pos2_old[0]
 371  0320  0200     R  	sub a,_pos2[0]
 371  0321  0700     R  	mov a,_pos2_old[1]
 371  0322  1200     R  	sbc a,_pos2[1]
 371  0323  3B0A        	snz cz
 371  0324  2800     R  	jmp _L64
 371  0325  0700     R  	mov a,_pos3_old[0]
 371  0326  0200     R  	sub a,_pos3[0]
 371  0327  0700     R  	mov a,_pos3_old[1]
 371  0328  1200     R  	sbc a,_pos3[1]
 371  0329  3F0A        	sz cz
 371  032A  2800     R  	jmp _L65
 371  032B              _L64:
 373  032B              #line 373 "c:\users\林斐\desktop\11.机械臂\main.c"
 373  032B  0F00     R  	mov a,low offset _linshi
 373  032C  0080     E  	mov _Int2String_2[2],a
 373  032D  0F00     R  	mov a,high offset _linshi
 373  032E  0080     E  	mov _Int2String_2[3],a
 373  032F  0700     E  	mov a,rb
 373  0330  0080     E  	mov _Int2String_2[0],a
 373  0331  0700     E  	mov a,rc
 373  0332  0080     E  	mov _Int2String_2[1],a
 373  0333              	fcall _Int2String
 373  033A  0700     E  	mov a,ra
 373  033B  0080     E  	mov _send_buff_2[0],a
 373  033C  0700     E  	mov a,rb
 373  033D  0080     E  	mov _send_buff_2[1],a
 373  033E              	fcall _send_buff
 374  0345              #line 374 "c:\users\林斐\desktop\11.机械臂\main.c"
 374  0345  0F00     R  	mov a,low offset _LC4
 374  0346  0080     E  	mov _send_buff_2[0],a
 374  0347  0F00     R  	mov a,high offset _LC4
 374  0348  0080     E  	mov _send_buff_2[1],a
 374  0349              	fcall _send_buff
 375  0350              #line 375 "c:\users\林斐\desktop\11.机械臂\main.c"
 375  0350  0F00     R  	mov a,low offset _linshi
 375  0351  0080     E  	mov _Int2String_2[2],a
 375  0352  0F00     R  	mov a,high offset _linshi
 375  0353  0080     E  	mov _Int2String_2[3],a
 375  0354  0700     R  	mov a,_pos1[0]
 375  0355  0080     E  	mov _Int2String_2[0],a
文件：main.c       编译器版本 HGASM 0202 页次40

 375  0356  0700     R  	mov a,_pos1[1]
 375  0357  0080     E  	mov _Int2String_2[1],a
 375  0358              	fcall _Int2String
 375  035F  0700     E  	mov a,ra
 375  0360  0080     E  	mov _send_buff_2[0],a
 375  0361  0700     E  	mov a,rb
 375  0362  0080     E  	mov _send_buff_2[1],a
 375  0363              	fcall _send_buff
 376  036A              #line 376 "c:\users\林斐\desktop\11.机械臂\main.c"
 376  036A  0F00     R  	mov a,low offset _LC4
 376  036B  0080     E  	mov _send_buff_2[0],a
 376  036C  0F00     R  	mov a,high offset _LC4
 376  036D  0080     E  	mov _send_buff_2[1],a
 376  036E              	fcall _send_buff
 377  0375              #line 377 "c:\users\林斐\desktop\11.机械臂\main.c"
 377  0375  0F00     R  	mov a,low offset _linshi
 377  0376  0080     E  	mov _Int2String_2[2],a
 377  0377  0F00     R  	mov a,high offset _linshi
 377  0378  0080     E  	mov _Int2String_2[3],a
 377  0379  0700     R  	mov a,_pos2[0]
 377  037A  0080     E  	mov _Int2String_2[0],a
 377  037B  0700     R  	mov a,_pos2[1]
 377  037C  0080     E  	mov _Int2String_2[1],a
 377  037D              	fcall _Int2String
 377  0384  0700     E  	mov a,ra
 377  0385  0080     E  	mov _send_buff_2[0],a
 377  0386  0700     E  	mov a,rb
 377  0387  0080     E  	mov _send_buff_2[1],a
 377  0388              	fcall _send_buff
 378  038F              #line 378 "c:\users\林斐\desktop\11.机械臂\main.c"
 378  038F  0F00     R  	mov a,low offset _LC4
 378  0390  0080     E  	mov _send_buff_2[0],a
 378  0391  0F00     R  	mov a,high offset _LC4
 378  0392  0080     E  	mov _send_buff_2[1],a
 378  0393              	fcall _send_buff
 379  039A              #line 379 "c:\users\林斐\desktop\11.机械臂\main.c"
 379  039A  0F00     R  	mov a,low offset _linshi
 379  039B  0080     E  	mov _Int2String_2[2],a
 379  039C  0F00     R  	mov a,high offset _linshi
 379  039D  0080     E  	mov _Int2String_2[3],a
 379  039E  0700     R  	mov a,_pos3[0]
 379  039F  0080     E  	mov _Int2String_2[0],a
 379  03A0  0700     R  	mov a,_pos3[1]
 379  03A1  0080     E  	mov _Int2String_2[1],a
 379  03A2              	fcall _Int2String
 379  03A9  0700     E  	mov a,ra
 379  03AA  0080     E  	mov _send_buff_2[0],a
 379  03AB  0700     E  	mov a,rb
 379  03AC  0080     E  	mov _send_buff_2[1],a
 379  03AD              	fcall _send_buff
 380  03B4              #line 380 "c:\users\林斐\desktop\11.机械臂\main.c"
 380  03B4  0F00     R  	mov a,low offset _LC3
 380  03B5  0080     E  	mov _send_buff_2[0],a
 380  03B6  0F00     R  	mov a,high offset _LC3
 380  03B7  0080     E  	mov _send_buff_2[1],a
 380  03B8              	fcall _send_buff
 380  03BF              _L65:
 382  03BF              #line 382 "c:\users\林斐\desktop\11.机械臂\main.c"
 382  03BF  0700     R  	mov a,_pos0[0]
 382  03C0  0080     R  	mov _pos0_old[0],a
文件：main.c       编译器版本 HGASM 0202 页次41

 382  03C1  0700     R  	mov a,_pos0[1]
 382  03C2  0080     R  	mov _pos0_old[1],a
 382  03C3  0700     R  	mov a,_pos1[0]
 382  03C4  0080     R  	mov _pos1_old[0],a
 382  03C5  0700     R  	mov a,_pos1[1]
 382  03C6  0080     R  	mov _pos1_old[1],a
 382  03C7  0700     R  	mov a,_pos2[0]
 382  03C8  0080     R  	mov _pos2_old[0],a
 382  03C9  0700     R  	mov a,_pos2[1]
 382  03CA  0080     R  	mov _pos2_old[1],a
 382  03CB  0700     R  	mov a,_pos3[0]
 382  03CC  0080     R  	mov _pos3_old[0],a
 382  03CD  0700     R  	mov a,_pos3[1]
 382  03CE  0080     R  	mov _pos3_old[1],a
 382  03CF              _L29:
 382  03CF  0003        	ret
 382  03D0              _Control_Angle endp
 382  03D0              #line 382 "c:\users\林斐\desktop\11.机械臂\main.c"
 382  03D0              #pragma debug scope 1 1
 382  03D0              public _main
 382  03D0              #pragma debug scope 8 1
  26  03D0              #line 26 "c:\users\林斐\desktop\11.机械臂\main.c"
  26  03D0              IFDEF WITH_DEFAULT_STARTUP
  26  03D0              extern _main_initial0:near
  26  03D0              extern _main_startup:near
  26  03D0              ENDIF
  26  03D0              
  26  03D0              ROMBANK 0 @start
  26  0000              @start .section com_l 'code'
  26  0000              _main_startup1:
  26  0000              @start .section com_e 'code'
  26  0000  0F00     R  	mov a,bank _main
  26  0001  008B        	mov bp,a
  26  0002  2800     R  	jmp _main
  26  0003              
  26  0000              _main .section 'code'
  26  0000              _main proc
  27  0000              #line 27 "c:\users\林斐\desktop\11.机械臂\main.c"
  27  0000              	fcall _Cls_init
  28  0007              #line 28 "c:\users\林斐\desktop\11.机械臂\main.c"
  28  0007  0F0A        	mov a,10
  28  0008  0080     R  	mov _pos0[0],a
  28  0009  1F00     R  	clr _pos0[1]
  28  000A  0F25        	mov a,37
  28  000B  0080     R  	mov _pos1[0],a
  28  000C  1F00     R  	clr _pos1[1]
  28  000D  0F20        	mov a,32
  28  000E  0080     R  	mov _pos2[0],a
  28  000F  1F00     R  	clr _pos2[1]
  28  0010  1F00     R  	clr _pos3[0]
  28  0011  1F00     R  	clr _pos3[1]
  29  0012              #line 29 "c:\users\林斐\desktop\11.机械臂\main.c"
  29  0012  31C6        	set [70].3
  30  0013              #line 30 "c:\users\林斐\desktop\11.机械臂\main.c"
  30  0013  0F0A        	mov a,10
  30  0014  0080     E  	mov _PWM_Change_0_2[0],a
  30  0015  1F00     E  	clr _PWM_Change_0_2[1]
  30  0016              	fcall _PWM_Change_0
  31  001D              #line 31 "c:\users\林斐\desktop\11.机械臂\main.c"
  31  001D  0FE8        	mov a,-24
文件：main.c       编译器版本 HGASM 0202 页次42

  31  001E  0080     E  	mov _delay_ms_2[0],a
  31  001F  0F03        	mov a,3
  31  0020  0080     E  	mov _delay_ms_2[1],a
  31  0021              	fcall _delay_ms
  32  0028              #line 32 "c:\users\林斐\desktop\11.机械臂\main.c"
  32  0028  35C6        	clr [70].3
  33  0029              #line 33 "c:\users\林斐\desktop\11.机械臂\main.c"
  33  0029  0700     R  	mov a,_pos1[0]
  33  002A  0080     E  	mov _PWM_Change_1_2[0],a
  33  002B  0700     R  	mov a,_pos1[1]
  33  002C  0080     E  	mov _PWM_Change_1_2[1],a
  33  002D              	fcall _PWM_Change_1
  34  0034              #line 34 "c:\users\林斐\desktop\11.机械臂\main.c"
  34  0034  0FE8        	mov a,-24
  34  0035  0080     E  	mov _delay_ms_2[0],a
  34  0036  0F03        	mov a,3
  34  0037  0080     E  	mov _delay_ms_2[1],a
  34  0038              	fcall _delay_ms
  35  003F              #line 35 "c:\users\林斐\desktop\11.机械臂\main.c"
  35  003F  0700     R  	mov a,_pos2[0]
  35  0040  0080     E  	mov _PWM_Change_2_2[0],a
  35  0041  0700     R  	mov a,_pos2[1]
  35  0042  0080     E  	mov _PWM_Change_2_2[1],a
  35  0043              	fcall _PWM_Change_2
  36  004A              #line 36 "c:\users\林斐\desktop\11.机械臂\main.c"
  36  004A  0FF4        	mov a,-12
  36  004B  0080     E  	mov _delay_ms_2[0],a
  36  004C  0F01        	mov a,1
  36  004D  0080     E  	mov _delay_ms_2[1],a
  36  004E              	fcall _delay_ms
  37  0055              #line 37 "c:\users\林斐\desktop\11.机械臂\main.c"
  37  0055  0700     R  	mov a,_pos3[0]
  37  0056  0080     E  	mov _PWM_Change_3_2[0],a
  37  0057  0700     R  	mov a,_pos3[1]
  37  0058  0080     E  	mov _PWM_Change_3_2[1],a
  37  0059              	fcall _PWM_Change_3
  38  0060              #line 38 "c:\users\林斐\desktop\11.机械臂\main.c"
  38  0060  0FF4        	mov a,-12
  38  0061  0080     E  	mov _delay_ms_2[0],a
  38  0062  0F01        	mov a,1
  38  0063  0080     E  	mov _delay_ms_2[1],a
  38  0064              	fcall _delay_ms
  39  006B              #line 39 "c:\users\林斐\desktop\11.机械臂\main.c"
  39  006B  0700     R  	mov a,_pos3[0]
  39  006C  0080     E  	mov _PWM_Change_3_2[0],a
  39  006D  0700     R  	mov a,_pos3[1]
  39  006E  0080     E  	mov _PWM_Change_3_2[1],a
  39  006F              	fcall _PWM_Change_3
  40  0076              #line 40 "c:\users\林斐\desktop\11.机械臂\main.c"
  40  0076  0FF4        	mov a,-12
  40  0077  0080     E  	mov _delay_ms_2[0],a
  40  0078  0F01        	mov a,1
  40  0079  0080     E  	mov _delay_ms_2[1],a
  40  007A              	fcall _delay_ms
  40  0081              _L67:
  44  0081              #line 44 "c:\users\林斐\desktop\11.机械臂\main.c"
  44  0081              	fcall _Control_Angle
  44  0088  2800     R  	jmp _L67
  44  0089  2800     R  	jmp $
  44  008A              _main endp
文件：main.c       编译器版本 HGASM 0202 页次43

  44  008A              
  44  008A              @dummy endp
  44  008A              
  44  008A              #line 44 "c:\users\林斐\desktop\11.机械臂\main.c"
  44  008A              #pragma debug scope 1 1
  44  008A              public _pos3_old
  44  0000              @HCCINIT	.section 'data'
  23  0000              #line 23 "c:\users\林斐\desktop\11.机械臂\main.c"
  23  0000              @HCCINIT_pos3_old .section 'data'
  23  0000              _pos3_old label byte
  23  0000              #pragma debug variable 11 1 _pos3_old "pos3_old"
  23  0000              	dw 90
  23  0000              @ROMDATA_BASE .section inpage 'code'
  23  0000  005A        	dc 90
  23  0002              @HCCINIT_pos3_old .section 'data'
  23  0002              public _pos2_old
  23  0002              #line 23 "c:\users\林斐\desktop\11.机械臂\main.c"
  23  0000              @HCCINIT_pos2_old .section 'data'
  23  0000              _pos2_old label byte
  23  0000              #pragma debug variable 11 1 _pos2_old "pos2_old"
  23  0000              	dw 90
  23  0001              @ROMDATA_BASE .section inpage 'code'
  23  0001  005A        	dc 90
  23  0002              @HCCINIT_pos2_old .section 'data'
  23  0002              public _pos1_old
  23  0002              #line 23 "c:\users\林斐\desktop\11.机械臂\main.c"
  23  0000              @HCCINIT_pos1_old .section 'data'
  23  0000              _pos1_old label byte
  23  0000              #pragma debug variable 11 1 _pos1_old "pos1_old"
  23  0000              	dw 90
  23  0002              @ROMDATA_BASE .section inpage 'code'
  23  0002  005A        	dc 90
  23  0002              @HCCINIT_pos1_old .section 'data'
  23  0002              public _pos0_old
  23  0002              #line 23 "c:\users\林斐\desktop\11.机械臂\main.c"
  23  0000              @HCCINIT_pos0_old .section 'data'
  23  0000              _pos0_old label byte
  23  0000              #pragma debug variable 11 1 _pos0_old "pos0_old"
  23  0000              	dw 90
  23  0003              @ROMDATA_BASE .section inpage 'code'
  23  0003  005A        	dc 90
  23  0002              @HCCINIT_pos0_old .section 'data'
  23  0002              public _pos3
  22  0002              #line 22 "c:\users\林斐\desktop\11.机械臂\main.c"
  22  0000              @HCCINIT_pos3 .section 'data'
  22  0000              _pos3 label byte
  22  0000              #pragma debug variable 11 1 _pos3 "pos3"
  22  0000              	dw 90
  22  0004              @ROMDATA_BASE .section inpage 'code'
  22  0004  005A        	dc 90
  22  0002              @HCCINIT_pos3 .section 'data'
  22  0002              public _pos2
  22  0002              #line 22 "c:\users\林斐\desktop\11.机械臂\main.c"
  22  0000              @HCCINIT_pos2 .section 'data'
  22  0000              _pos2 label byte
  22  0000              #pragma debug variable 11 1 _pos2 "pos2"
  22  0000              	dw 90
  22  0005              @ROMDATA_BASE .section inpage 'code'
  22  0005  005A        	dc 90
  22  0002              @HCCINIT_pos2 .section 'data'
文件：main.c       编译器版本 HGASM 0202 页次44

  22  0002              public _pos1
  22  0002              #line 22 "c:\users\林斐\desktop\11.机械臂\main.c"
  22  0000              @HCCINIT_pos1 .section 'data'
  22  0000              _pos1 label byte
  22  0000              #pragma debug variable 11 1 _pos1 "pos1"
  22  0000              	dw 90
  22  0006              @ROMDATA_BASE .section inpage 'code'
  22  0006  005A        	dc 90
  22  0002              @HCCINIT_pos1 .section 'data'
  22  0002              public _pos0
  22  0002              #line 22 "c:\users\林斐\desktop\11.机械臂\main.c"
  22  0000              @HCCINIT_pos0 .section 'data'
  22  0000              _pos0 label byte
  22  0000              #pragma debug variable 11 1 _pos0 "pos0"
  22  0000              	dw 90
  22  0007              @ROMDATA_BASE .section inpage 'code'
  22  0007  005A        	dc 90
  22  0002              @HCCINIT_pos0 .section 'data'
  22  0002              public _yaw
  21  0002              #line 21 "c:\users\林斐\desktop\11.机械臂\main.c"
  21  0000              @HCCINIT_yaw .section 'data'
  21  0000              _yaw label byte
  21  0000              #pragma debug variable 28 1 _yaw "yaw"
  21  0000              	db 0
  21  0008              @ROMDATA_BASE .section inpage 'code'
  21  0008              	db 0
  21  0001              @HCCINIT_yaw .section 'data'
  21  0001              	db 0
  21  0009              @ROMDATA_BASE .section inpage 'code'
  21  0009              	db 0
  21  0002              @HCCINIT_yaw .section 'data'
  21  0002              	db 0
  21  0009              @ROMDATA_BASE .section inpage 'code'
  21  0009              	db 0
  21  0003              @HCCINIT_yaw .section 'data'
  21  0003              public _roll
  21  0003              #line 21 "c:\users\林斐\desktop\11.机械臂\main.c"
  21  0000              @HCCINIT_roll .section 'data'
  21  0000              _roll label byte
  21  0000              #pragma debug variable 28 1 _roll "roll"
  21  0000              	db 0
  21  000A              @ROMDATA_BASE .section inpage 'code'
  21  000A              	db 0
  21  0001              @HCCINIT_roll .section 'data'
  21  0001              	db 0
  21  000A              @ROMDATA_BASE .section inpage 'code'
  21  000A              	db 0
  21  0002              @HCCINIT_roll .section 'data'
  21  0002              	db 0
  21  000B              @ROMDATA_BASE .section inpage 'code'
  21  000B              	db 0
  21  0003              @HCCINIT_roll .section 'data'
  21  0003              public _pitch
  21  0003              #line 21 "c:\users\林斐\desktop\11.机械臂\main.c"
  21  0000              @HCCINIT_pitch .section 'data'
  21  0000              _pitch label byte
  21  0000              #pragma debug variable 28 1 _pitch "pitch"
  21  0000              	db 0
  21  000B              @ROMDATA_BASE .section inpage 'code'
  21  000B              	db 0
文件：main.c       编译器版本 HGASM 0202 页次45

  21  0001              @HCCINIT_pitch .section 'data'
  21  0001              	db 0
  21  000C              @ROMDATA_BASE .section inpage 'code'
  21  000C              	db 0
  21  0002              @HCCINIT_pitch .section 'data'
  21  0002              	db 0
  21  000C              @ROMDATA_BASE .section inpage 'code'
  21  000C              	db 0
  21  0003              @HCCINIT_pitch .section 'data'
  21  0003              public _q3
  20  0003              #line 20 "c:\users\林斐\desktop\11.机械臂\main.c"
  20  0000              @HCCINIT_q3 .section 'data'
  20  0000              _q3 label byte
  20  0000              #pragma debug variable 28 1 _q3 "q3"
  20  0000              	db 0
  20  000D              @ROMDATA_BASE .section inpage 'code'
  20  000D              	db 0
  20  0001              @HCCINIT_q3 .section 'data'
  20  0001              	db 0
  20  000D              @ROMDATA_BASE .section inpage 'code'
  20  000D              	db 0
  20  0002              @HCCINIT_q3 .section 'data'
  20  0002              	db 0
  20  000E              @ROMDATA_BASE .section inpage 'code'
  20  000E              	db 0
  20  0003              @HCCINIT_q3 .section 'data'
  20  0003              public _q2
  20  0003              #line 20 "c:\users\林斐\desktop\11.机械臂\main.c"
  20  0000              @HCCINIT_q2 .section 'data'
  20  0000              _q2 label byte
  20  0000              #pragma debug variable 28 1 _q2 "q2"
  20  0000              	db 0
  20  000E              @ROMDATA_BASE .section inpage 'code'
  20  000E              	db 0
  20  0001              @HCCINIT_q2 .section 'data'
  20  0001              	db 0
  20  000F              @ROMDATA_BASE .section inpage 'code'
  20  000F              	db 0
  20  0002              @HCCINIT_q2 .section 'data'
  20  0002              	db 0
  20  000F              @ROMDATA_BASE .section inpage 'code'
  20  000F              	db 0
  20  0003              @HCCINIT_q2 .section 'data'
  20  0003              public _q1
  20  0003              #line 20 "c:\users\林斐\desktop\11.机械臂\main.c"
  20  0000              @HCCINIT_q1 .section 'data'
  20  0000              _q1 label byte
  20  0000              #pragma debug variable 28 1 _q1 "q1"
  20  0000              	db 0
  20  0010              @ROMDATA_BASE .section inpage 'code'
  20  0010              	db 0
  20  0001              @HCCINIT_q1 .section 'data'
  20  0001              	db 0
  20  0010              @ROMDATA_BASE .section inpage 'code'
  20  0010              	db 0
  20  0002              @HCCINIT_q1 .section 'data'
  20  0002              	db 0
  20  0011              @ROMDATA_BASE .section inpage 'code'
  20  0011              	db 0
  20  0003              @HCCINIT_q1 .section 'data'
文件：main.c       编译器版本 HGASM 0202 页次46

  20  0003              public _q0
  20  0003              #line 20 "c:\users\林斐\desktop\11.机械臂\main.c"
  20  0000              @HCCINIT_q0 .section 'data'
  20  0000              _q0 label byte
  20  0000              #pragma debug variable 28 1 _q0 "q0"
  20  0000              	db 0,128,63	;=0x3f8000
  20  0011              @ROMDATA_BASE .section inpage 'code'
  20  0011              	db 0,128,63
  20  0003              @HCCINIT_q0 .section 'data'
  20  0003              public _quat
  19  0003              #line 19 "c:\users\林斐\desktop\11.机械臂\main.c"
  19  0000              @HCCINIT_quat .section 'data'
  19  0000              _quat label byte
  19  0000              #pragma debug array 43 13 4 1
  19  0000              #pragma debug array 43 13 4 1
  19  0000              #pragma debug variable 43 1 _quat "quat"
  19  0000              	db 0
  19  0013              @ROMDATA_BASE .section inpage 'code'
  19  0013              	db 0
  19  0001              @HCCINIT_quat .section 'data'
  19  0001              	db 0
  19  0013              @ROMDATA_BASE .section inpage 'code'
  19  0013              	db 0
  19  0002              @HCCINIT_quat .section 'data'
  19  0002              	db 0
  19  0014              @ROMDATA_BASE .section inpage 'code'
  19  0014              	db 0
  19  0003              @HCCINIT_quat .section 'data'
  19  0003              	db 0
  19  0014              @ROMDATA_BASE .section inpage 'code'
  19  0014              	db 0
  19  0004              @HCCINIT_quat .section 'data'
  19  0004              	db 0
  19  0015              @ROMDATA_BASE .section inpage 'code'
  19  0015              	db 0
  19  0005              @HCCINIT_quat .section 'data'
  19  0005              	db 0
  19  0015              @ROMDATA_BASE .section inpage 'code'
  19  0015              	db 0
  19  0006              @HCCINIT_quat .section 'data'
  19  0006              	db 0
  19  0016              @ROMDATA_BASE .section inpage 'code'
  19  0016              	db 0
  19  0007              @HCCINIT_quat .section 'data'
  19  0007              	db 0
  19  0016              @ROMDATA_BASE .section inpage 'code'
  19  0016              	db 0
  19  0008              @HCCINIT_quat .section 'data'
  19  0008              	db 0
  19  0017              @ROMDATA_BASE .section inpage 'code'
  19  0017              	db 0
  19  0009              @HCCINIT_quat .section 'data'
  19  0009              	db 0
  19  0017              @ROMDATA_BASE .section inpage 'code'
  19  0017              	db 0
  19  000A              @HCCINIT_quat .section 'data'
  19  000A              	db 0
  19  0018              @ROMDATA_BASE .section inpage 'code'
  19  0018              	db 0
  19  000B              @HCCINIT_quat .section 'data'
文件：main.c       编译器版本 HGASM 0202 页次47

  19  000B              	db 0
  19  0018              @ROMDATA_BASE .section inpage 'code'
  19  0018              	db 0
  19  000C              @HCCINIT_quat .section 'data'
  19  000C              	db 0
  19  0019              @ROMDATA_BASE .section inpage 'code'
  19  0019              	db 0
  19  000D              @HCCINIT_quat .section 'data'
  19  000D              	db 0
  19  0019              @ROMDATA_BASE .section inpage 'code'
  19  0019              	db 0
  19  000E              @HCCINIT_quat .section 'data'
  19  000E              	db 0
  19  001A              @ROMDATA_BASE .section inpage 'code'
  19  001A              	db 0
  19  000F              @HCCINIT_quat .section 'data'
  19  000F              	db 0
  19  001A              @ROMDATA_BASE .section inpage 'code'
  19  001A              	db 0
  19  0010              @HCCINIT_quat .section 'data'
  19  0010              public _i
  18  0010              #line 18 "c:\users\林斐\desktop\11.机械臂\main.c"
  18  0000              @HCCINIT_i .section 'data'
  18  0000              _i label byte
  18  0000              #pragma debug variable 8 1 _i "i"
  18  0000              	db 0
  18  001B              @ROMDATA_BASE .section inpage 'code'
  18  001B              	db 0
  18  0001              @HCCINIT_i .section 'data'
  18  0001              public _zd
  18  0001              #line 18 "c:\users\林斐\desktop\11.机械臂\main.c"
  18  0000              @HCCINIT_zd .section 'data'
  18  0000              _zd label byte
  18  0000              #pragma debug variable 8 1 _zd "zd"
  18  0000              	db 0
  18  001B              @ROMDATA_BASE .section inpage 'code'
  18  001B              	db 0
  18  0001              @HCCINIT_zd .section 'data'
  18  0001              public _dmpdatas
  17  0001              #line 17 "c:\users\林斐\desktop\11.机械臂\main.c"
  17  0000              @HCCINIT_dmpdatas .section 'data'
  17  0000              _dmpdatas label byte
  17  0000              #pragma debug array 44 8 42 1
  17  0000              #pragma debug array 44 8 42 1
  17  0000              #pragma debug variable 44 1 _dmpdatas "dmpdatas"
  17  0000              	db 0
  17  001C              @ROMDATA_BASE .section inpage 'code'
  17  001C              	db 0
  17  0001              @HCCINIT_dmpdatas .section 'data'
  17  0001              	db 0
  17  001C              @ROMDATA_BASE .section inpage 'code'
  17  001C              	db 0
  17  0002              @HCCINIT_dmpdatas .section 'data'
  17  0002              	db 0
  17  001D              @ROMDATA_BASE .section inpage 'code'
  17  001D              	db 0
  17  0003              @HCCINIT_dmpdatas .section 'data'
  17  0003              	db 0
  17  001D              @ROMDATA_BASE .section inpage 'code'
  17  001D              	db 0
文件：main.c       编译器版本 HGASM 0202 页次48

  17  0004              @HCCINIT_dmpdatas .section 'data'
  17  0004              	db 0
  17  001E              @ROMDATA_BASE .section inpage 'code'
  17  001E              	db 0
  17  0005              @HCCINIT_dmpdatas .section 'data'
  17  0005              	db 0
  17  001E              @ROMDATA_BASE .section inpage 'code'
  17  001E              	db 0
  17  0006              @HCCINIT_dmpdatas .section 'data'
  17  0006              	db 0
  17  001F              @ROMDATA_BASE .section inpage 'code'
  17  001F              	db 0
  17  0007              @HCCINIT_dmpdatas .section 'data'
  17  0007              	db 0
  17  001F              @ROMDATA_BASE .section inpage 'code'
  17  001F              	db 0
  17  0008              @HCCINIT_dmpdatas .section 'data'
  17  0008              	db 0
  17  0020              @ROMDATA_BASE .section inpage 'code'
  17  0020              	db 0
  17  0009              @HCCINIT_dmpdatas .section 'data'
  17  0009              	db 0
  17  0020              @ROMDATA_BASE .section inpage 'code'
  17  0020              	db 0
  17  000A              @HCCINIT_dmpdatas .section 'data'
  17  000A              	db 0
  17  0021              @ROMDATA_BASE .section inpage 'code'
  17  0021              	db 0
  17  000B              @HCCINIT_dmpdatas .section 'data'
  17  000B              	db 0
  17  0021              @ROMDATA_BASE .section inpage 'code'
  17  0021              	db 0
  17  000C              @HCCINIT_dmpdatas .section 'data'
  17  000C              	db 0
  17  0022              @ROMDATA_BASE .section inpage 'code'
  17  0022              	db 0
  17  000D              @HCCINIT_dmpdatas .section 'data'
  17  000D              	db 0
  17  0022              @ROMDATA_BASE .section inpage 'code'
  17  0022              	db 0
  17  000E              @HCCINIT_dmpdatas .section 'data'
  17  000E              	db 0
  17  0023              @ROMDATA_BASE .section inpage 'code'
  17  0023              	db 0
  17  000F              @HCCINIT_dmpdatas .section 'data'
  17  000F              	db 0
  17  0023              @ROMDATA_BASE .section inpage 'code'
  17  0023              	db 0
  17  0010              @HCCINIT_dmpdatas .section 'data'
  17  0010              	db 0
  17  0024              @ROMDATA_BASE .section inpage 'code'
  17  0024              	db 0
  17  0011              @HCCINIT_dmpdatas .section 'data'
  17  0011              	db 0
  17  0024              @ROMDATA_BASE .section inpage 'code'
  17  0024              	db 0
  17  0012              @HCCINIT_dmpdatas .section 'data'
  17  0012              	db 0
  17  0025              @ROMDATA_BASE .section inpage 'code'
  17  0025              	db 0
文件：main.c       编译器版本 HGASM 0202 页次49

  17  0013              @HCCINIT_dmpdatas .section 'data'
  17  0013              	db 0
  17  0025              @ROMDATA_BASE .section inpage 'code'
  17  0025              	db 0
  17  0014              @HCCINIT_dmpdatas .section 'data'
  17  0014              	db 0
  17  0026              @ROMDATA_BASE .section inpage 'code'
  17  0026              	db 0
  17  0015              @HCCINIT_dmpdatas .section 'data'
  17  0015              	db 0
  17  0026              @ROMDATA_BASE .section inpage 'code'
  17  0026              	db 0
  17  0016              @HCCINIT_dmpdatas .section 'data'
  17  0016              	db 0
  17  0027              @ROMDATA_BASE .section inpage 'code'
  17  0027              	db 0
  17  0017              @HCCINIT_dmpdatas .section 'data'
  17  0017              	db 0
  17  0027              @ROMDATA_BASE .section inpage 'code'
  17  0027              	db 0
  17  0018              @HCCINIT_dmpdatas .section 'data'
  17  0018              	db 0
  17  0028              @ROMDATA_BASE .section inpage 'code'
  17  0028              	db 0
  17  0019              @HCCINIT_dmpdatas .section 'data'
  17  0019              	db 0
  17  0028              @ROMDATA_BASE .section inpage 'code'
  17  0028              	db 0
  17  001A              @HCCINIT_dmpdatas .section 'data'
  17  001A              	db 0
  17  0029              @ROMDATA_BASE .section inpage 'code'
  17  0029              	db 0
  17  001B              @HCCINIT_dmpdatas .section 'data'
  17  001B              	db 0
  17  0029              @ROMDATA_BASE .section inpage 'code'
  17  0029              	db 0
  17  001C              @HCCINIT_dmpdatas .section 'data'
  17  001C              	db 0
  17  002A              @ROMDATA_BASE .section inpage 'code'
  17  002A              	db 0
  17  001D              @HCCINIT_dmpdatas .section 'data'
  17  001D              	db 0
  17  002A              @ROMDATA_BASE .section inpage 'code'
  17  002A              	db 0
  17  001E              @HCCINIT_dmpdatas .section 'data'
  17  001E              	db 0
  17  002B              @ROMDATA_BASE .section inpage 'code'
  17  002B              	db 0
  17  001F              @HCCINIT_dmpdatas .section 'data'
  17  001F              	db 0
  17  002B              @ROMDATA_BASE .section inpage 'code'
  17  002B              	db 0
  17  0020              @HCCINIT_dmpdatas .section 'data'
  17  0020              	db 0
  17  002C              @ROMDATA_BASE .section inpage 'code'
  17  002C              	db 0
  17  0021              @HCCINIT_dmpdatas .section 'data'
  17  0021              	db 0
  17  002C              @ROMDATA_BASE .section inpage 'code'
  17  002C              	db 0
文件：main.c       编译器版本 HGASM 0202 页次50

  17  0022              @HCCINIT_dmpdatas .section 'data'
  17  0022              	db 0
  17  002D              @ROMDATA_BASE .section inpage 'code'
  17  002D              	db 0
  17  0023              @HCCINIT_dmpdatas .section 'data'
  17  0023              	db 0
  17  002D              @ROMDATA_BASE .section inpage 'code'
  17  002D              	db 0
  17  0024              @HCCINIT_dmpdatas .section 'data'
  17  0024              	db 0
  17  002E              @ROMDATA_BASE .section inpage 'code'
  17  002E              	db 0
  17  0025              @HCCINIT_dmpdatas .section 'data'
  17  0025              	db 0
  17  002E              @ROMDATA_BASE .section inpage 'code'
  17  002E              	db 0
  17  0026              @HCCINIT_dmpdatas .section 'data'
  17  0026              	db 0
  17  002F              @ROMDATA_BASE .section inpage 'code'
  17  002F              	db 0
  17  0027              @HCCINIT_dmpdatas .section 'data'
  17  0027              	db 0
  17  002F              @ROMDATA_BASE .section inpage 'code'
  17  002F              	db 0
  17  0028              @HCCINIT_dmpdatas .section 'data'
  17  0028              	db 0
  17  0030              @ROMDATA_BASE .section inpage 'code'
  17  0030              	db 0
  17  0029              @HCCINIT_dmpdatas .section 'data'
  17  0029              	db 0
  17  0030              @ROMDATA_BASE .section inpage 'code'
  17  0030              	db 0
  17  002A              @HCCINIT_dmpdatas .section 'data'
  17  002A              public _mechanical_delay
  14  002A              #line 14 "c:\users\林斐\desktop\11.机械臂\main.c"
  14  0000              @HCCINIT_mechanical_delay .section 'data'
  14  0000              _mechanical_delay label byte
  14  0000              #pragma debug variable 12 1 _mechanical_delay "mechanical_delay"
  14  0000              	db 0
  14  0031              @ROMDATA_BASE .section inpage 'code'
  14  0031              	db 0
  14  0001              @HCCINIT_mechanical_delay .section 'data'
  14  0001              	db 0
  14  0031              @ROMDATA_BASE .section inpage 'code'
  14  0031              	db 0
  14  0002              @HCCINIT_mechanical_delay .section 'data'
  14  0002              public _mpu6050_delay
  13  0002              #line 13 "c:\users\林斐\desktop\11.机械臂\main.c"
  13  0000              @HCCINIT_mpu6050_delay .section 'data'
  13  0000              _mpu6050_delay label byte
  13  0000              #pragma debug variable 12 1 _mpu6050_delay "mpu6050_delay"
  13  0000              	db 0
  13  0032              @ROMDATA_BASE .section inpage 'code'
  13  0032              	db 0
  13  0001              @HCCINIT_mpu6050_delay .section 'data'
  13  0001              	db 0
  13  0032              @ROMDATA_BASE .section inpage 'code'
  13  0032              	db 0
  13  0002              @HCCINIT_mpu6050_delay .section 'data'
  13  0002              public _time2_count
文件：main.c       编译器版本 HGASM 0202 页次51

  12  0002              #line 12 "c:\users\林斐\desktop\11.机械臂\main.c"
  12  0000              @HCCINIT_time2_count .section 'data'
  12  0000              _time2_count label byte
  12  0000              #pragma debug variable 12 1 _time2_count "time2_count"
  12  0000              	db 0
  12  0033              @ROMDATA_BASE .section inpage 'code'
  12  0033              	db 0
  12  0001              @HCCINIT_time2_count .section 'data'
  12  0001              	db 0
  12  0033              @ROMDATA_BASE .section inpage 'code'
  12  0033              	db 0
  12  0002              @HCCINIT_time2_count .section 'data'
  12  0002              public _linshi
  10  0002              #line 10 "c:\users\林斐\desktop\11.机械臂\main.c"
  10  0000              @HCCINIT_linshi .section 'data'
  10  0000              _linshi label byte
  10  0000              #pragma debug array 45 7 50 1
  10  0000              #pragma debug array 45 7 50 1
  10  0000              #pragma debug variable 45 1 _linshi "linshi"
  10  0000              	db 0
  10  0034              @ROMDATA_BASE .section inpage 'code'
  10  0034              	db 0
  10  0001              @HCCINIT_linshi .section 'data'
  10  0001              	db 0
  10  0034              @ROMDATA_BASE .section inpage 'code'
  10  0034              	db 0
  10  0002              @HCCINIT_linshi .section 'data'
  10  0002              	db 0
  10  0035              @ROMDATA_BASE .section inpage 'code'
  10  0035              	db 0
  10  0003              @HCCINIT_linshi .section 'data'
  10  0003              	db 0
  10  0035              @ROMDATA_BASE .section inpage 'code'
  10  0035              	db 0
  10  0004              @HCCINIT_linshi .section 'data'
  10  0004              	db 0
  10  0036              @ROMDATA_BASE .section inpage 'code'
  10  0036              	db 0
  10  0005              @HCCINIT_linshi .section 'data'
  10  0005              	db 0
  10  0036              @ROMDATA_BASE .section inpage 'code'
  10  0036              	db 0
  10  0006              @HCCINIT_linshi .section 'data'
  10  0006              	db 0
  10  0037              @ROMDATA_BASE .section inpage 'code'
  10  0037              	db 0
  10  0007              @HCCINIT_linshi .section 'data'
  10  0007              	db 0
  10  0037              @ROMDATA_BASE .section inpage 'code'
  10  0037              	db 0
  10  0008              @HCCINIT_linshi .section 'data'
  10  0008              	db 0
  10  0038              @ROMDATA_BASE .section inpage 'code'
  10  0038              	db 0
  10  0009              @HCCINIT_linshi .section 'data'
  10  0009              	db 0
  10  0038              @ROMDATA_BASE .section inpage 'code'
  10  0038              	db 0
  10  000A              @HCCINIT_linshi .section 'data'
  10  000A              	db 0
文件：main.c       编译器版本 HGASM 0202 页次52

  10  0039              @ROMDATA_BASE .section inpage 'code'
  10  0039              	db 0
  10  000B              @HCCINIT_linshi .section 'data'
  10  000B              	db 0
  10  0039              @ROMDATA_BASE .section inpage 'code'
  10  0039              	db 0
  10  000C              @HCCINIT_linshi .section 'data'
  10  000C              	db 0
  10  003A              @ROMDATA_BASE .section inpage 'code'
  10  003A              	db 0
  10  000D              @HCCINIT_linshi .section 'data'
  10  000D              	db 0
  10  003A              @ROMDATA_BASE .section inpage 'code'
  10  003A              	db 0
  10  000E              @HCCINIT_linshi .section 'data'
  10  000E              	db 0
  10  003B              @ROMDATA_BASE .section inpage 'code'
  10  003B              	db 0
  10  000F              @HCCINIT_linshi .section 'data'
  10  000F              	db 0
  10  003B              @ROMDATA_BASE .section inpage 'code'
  10  003B              	db 0
  10  0010              @HCCINIT_linshi .section 'data'
  10  0010              	db 0
  10  003C              @ROMDATA_BASE .section inpage 'code'
  10  003C              	db 0
  10  0011              @HCCINIT_linshi .section 'data'
  10  0011              	db 0
  10  003C              @ROMDATA_BASE .section inpage 'code'
  10  003C              	db 0
  10  0012              @HCCINIT_linshi .section 'data'
  10  0012              	db 0
  10  003D              @ROMDATA_BASE .section inpage 'code'
  10  003D              	db 0
  10  0013              @HCCINIT_linshi .section 'data'
  10  0013              	db 0
  10  003D              @ROMDATA_BASE .section inpage 'code'
  10  003D              	db 0
  10  0014              @HCCINIT_linshi .section 'data'
  10  0014              	db 0
  10  003E              @ROMDATA_BASE .section inpage 'code'
  10  003E              	db 0
  10  0015              @HCCINIT_linshi .section 'data'
  10  0015              	db 0
  10  003E              @ROMDATA_BASE .section inpage 'code'
  10  003E              	db 0
  10  0016              @HCCINIT_linshi .section 'data'
  10  0016              	db 0
  10  003F              @ROMDATA_BASE .section inpage 'code'
  10  003F              	db 0
  10  0017              @HCCINIT_linshi .section 'data'
  10  0017              	db 0
  10  003F              @ROMDATA_BASE .section inpage 'code'
  10  003F              	db 0
  10  0018              @HCCINIT_linshi .section 'data'
  10  0018              	db 0
  10  0040              @ROMDATA_BASE .section inpage 'code'
  10  0040              	db 0
  10  0019              @HCCINIT_linshi .section 'data'
  10  0019              	db 0
文件：main.c       编译器版本 HGASM 0202 页次53

  10  0040              @ROMDATA_BASE .section inpage 'code'
  10  0040              	db 0
  10  001A              @HCCINIT_linshi .section 'data'
  10  001A              	db 0
  10  0041              @ROMDATA_BASE .section inpage 'code'
  10  0041              	db 0
  10  001B              @HCCINIT_linshi .section 'data'
  10  001B              	db 0
  10  0041              @ROMDATA_BASE .section inpage 'code'
  10  0041              	db 0
  10  001C              @HCCINIT_linshi .section 'data'
  10  001C              	db 0
  10  0042              @ROMDATA_BASE .section inpage 'code'
  10  0042              	db 0
  10  001D              @HCCINIT_linshi .section 'data'
  10  001D              	db 0
  10  0042              @ROMDATA_BASE .section inpage 'code'
  10  0042              	db 0
  10  001E              @HCCINIT_linshi .section 'data'
  10  001E              	db 0
  10  0043              @ROMDATA_BASE .section inpage 'code'
  10  0043              	db 0
  10  001F              @HCCINIT_linshi .section 'data'
  10  001F              	db 0
  10  0043              @ROMDATA_BASE .section inpage 'code'
  10  0043              	db 0
  10  0020              @HCCINIT_linshi .section 'data'
  10  0020              	db 0
  10  0044              @ROMDATA_BASE .section inpage 'code'
  10  0044              	db 0
  10  0021              @HCCINIT_linshi .section 'data'
  10  0021              	db 0
  10  0044              @ROMDATA_BASE .section inpage 'code'
  10  0044              	db 0
  10  0022              @HCCINIT_linshi .section 'data'
  10  0022              	db 0
  10  0045              @ROMDATA_BASE .section inpage 'code'
  10  0045              	db 0
  10  0023              @HCCINIT_linshi .section 'data'
  10  0023              	db 0
  10  0045              @ROMDATA_BASE .section inpage 'code'
  10  0045              	db 0
  10  0024              @HCCINIT_linshi .section 'data'
  10  0024              	db 0
  10  0046              @ROMDATA_BASE .section inpage 'code'
  10  0046              	db 0
  10  0025              @HCCINIT_linshi .section 'data'
  10  0025              	db 0
  10  0046              @ROMDATA_BASE .section inpage 'code'
  10  0046              	db 0
  10  0026              @HCCINIT_linshi .section 'data'
  10  0026              	db 0
  10  0047              @ROMDATA_BASE .section inpage 'code'
  10  0047              	db 0
  10  0027              @HCCINIT_linshi .section 'data'
  10  0027              	db 0
  10  0047              @ROMDATA_BASE .section inpage 'code'
  10  0047              	db 0
  10  0028              @HCCINIT_linshi .section 'data'
  10  0028              	db 0
文件：main.c       编译器版本 HGASM 0202 页次54

  10  0048              @ROMDATA_BASE .section inpage 'code'
  10  0048              	db 0
  10  0029              @HCCINIT_linshi .section 'data'
  10  0029              	db 0
  10  0048              @ROMDATA_BASE .section inpage 'code'
  10  0048              	db 0
  10  002A              @HCCINIT_linshi .section 'data'
  10  002A              	db 0
  10  0049              @ROMDATA_BASE .section inpage 'code'
  10  0049              	db 0
  10  002B              @HCCINIT_linshi .section 'data'
  10  002B              	db 0
  10  0049              @ROMDATA_BASE .section inpage 'code'
  10  0049              	db 0
  10  002C              @HCCINIT_linshi .section 'data'
  10  002C              	db 0
  10  004A              @ROMDATA_BASE .section inpage 'code'
  10  004A              	db 0
  10  002D              @HCCINIT_linshi .section 'data'
  10  002D              	db 0
  10  004A              @ROMDATA_BASE .section inpage 'code'
  10  004A              	db 0
  10  002E              @HCCINIT_linshi .section 'data'
  10  002E              	db 0
  10  004B              @ROMDATA_BASE .section inpage 'code'
  10  004B              	db 0
  10  002F              @HCCINIT_linshi .section 'data'
  10  002F              	db 0
  10  004B              @ROMDATA_BASE .section inpage 'code'
  10  004B              	db 0
  10  0030              @HCCINIT_linshi .section 'data'
  10  0030              	db 0
  10  004C              @ROMDATA_BASE .section inpage 'code'
  10  004C              	db 0
  10  0031              @HCCINIT_linshi .section 'data'
  10  0031              	db 0
  10  004C              @ROMDATA_BASE .section inpage 'code'
  10  004C              	db 0
  10  0032              @HCCINIT_linshi .section 'data'
  10  0032              public _buff_text
   9  0032              #line 9 "c:\users\林斐\desktop\11.机械臂\main.c"
   9  0000              @HCCINIT_buff_text .section 'data'
   9  0000              _buff_text label byte
   9  0000              #pragma debug variable 45 1 _buff_text "buff_text"
   9  0000              	db 0
   9  004D              @ROMDATA_BASE .section inpage 'code'
   9  004D              	db 0
   9  0001              @HCCINIT_buff_text .section 'data'
   9  0001              	db 0
   9  004D              @ROMDATA_BASE .section inpage 'code'
   9  004D              	db 0
   9  0002              @HCCINIT_buff_text .section 'data'
   9  0002              	db 0
   9  004E              @ROMDATA_BASE .section inpage 'code'
   9  004E              	db 0
   9  0003              @HCCINIT_buff_text .section 'data'
   9  0003              	db 0
   9  004E              @ROMDATA_BASE .section inpage 'code'
   9  004E              	db 0
   9  0004              @HCCINIT_buff_text .section 'data'
文件：main.c       编译器版本 HGASM 0202 页次55

   9  0004              	db 0
   9  004F              @ROMDATA_BASE .section inpage 'code'
   9  004F              	db 0
   9  0005              @HCCINIT_buff_text .section 'data'
   9  0005              	db 0
   9  004F              @ROMDATA_BASE .section inpage 'code'
   9  004F              	db 0
   9  0006              @HCCINIT_buff_text .section 'data'
   9  0006              	db 0
   9  0050              @ROMDATA_BASE .section inpage 'code'
   9  0050              	db 0
   9  0007              @HCCINIT_buff_text .section 'data'
   9  0007              	db 0
   9  0050              @ROMDATA_BASE .section inpage 'code'
   9  0050              	db 0
   9  0008              @HCCINIT_buff_text .section 'data'
   9  0008              	db 0
   9  0051              @ROMDATA_BASE .section inpage 'code'
   9  0051              	db 0
   9  0009              @HCCINIT_buff_text .section 'data'
   9  0009              	db 0
   9  0051              @ROMDATA_BASE .section inpage 'code'
   9  0051              	db 0
   9  000A              @HCCINIT_buff_text .section 'data'
   9  000A              	db 0
   9  0052              @ROMDATA_BASE .section inpage 'code'
   9  0052              	db 0
   9  000B              @HCCINIT_buff_text .section 'data'
   9  000B              	db 0
   9  0052              @ROMDATA_BASE .section inpage 'code'
   9  0052              	db 0
   9  000C              @HCCINIT_buff_text .section 'data'
   9  000C              	db 0
   9  0053              @ROMDATA_BASE .section inpage 'code'
   9  0053              	db 0
   9  000D              @HCCINIT_buff_text .section 'data'
   9  000D              	db 0
   9  0053              @ROMDATA_BASE .section inpage 'code'
   9  0053              	db 0
   9  000E              @HCCINIT_buff_text .section 'data'
   9  000E              	db 0
   9  0054              @ROMDATA_BASE .section inpage 'code'
   9  0054              	db 0
   9  000F              @HCCINIT_buff_text .section 'data'
   9  000F              	db 0
   9  0054              @ROMDATA_BASE .section inpage 'code'
   9  0054              	db 0
   9  0010              @HCCINIT_buff_text .section 'data'
   9  0010              	db 0
   9  0055              @ROMDATA_BASE .section inpage 'code'
   9  0055              	db 0
   9  0011              @HCCINIT_buff_text .section 'data'
   9  0011              	db 0
   9  0055              @ROMDATA_BASE .section inpage 'code'
   9  0055              	db 0
   9  0012              @HCCINIT_buff_text .section 'data'
   9  0012              	db 0
   9  0056              @ROMDATA_BASE .section inpage 'code'
   9  0056              	db 0
   9  0013              @HCCINIT_buff_text .section 'data'
文件：main.c       编译器版本 HGASM 0202 页次56

   9  0013              	db 0
   9  0056              @ROMDATA_BASE .section inpage 'code'
   9  0056              	db 0
   9  0014              @HCCINIT_buff_text .section 'data'
   9  0014              	db 0
   9  0057              @ROMDATA_BASE .section inpage 'code'
   9  0057              	db 0
   9  0015              @HCCINIT_buff_text .section 'data'
   9  0015              	db 0
   9  0057              @ROMDATA_BASE .section inpage 'code'
   9  0057              	db 0
   9  0016              @HCCINIT_buff_text .section 'data'
   9  0016              	db 0
   9  0058              @ROMDATA_BASE .section inpage 'code'
   9  0058              	db 0
   9  0017              @HCCINIT_buff_text .section 'data'
   9  0017              	db 0
   9  0058              @ROMDATA_BASE .section inpage 'code'
   9  0058              	db 0
   9  0018              @HCCINIT_buff_text .section 'data'
   9  0018              	db 0
   9  0059              @ROMDATA_BASE .section inpage 'code'
   9  0059              	db 0
   9  0019              @HCCINIT_buff_text .section 'data'
   9  0019              	db 0
   9  0059              @ROMDATA_BASE .section inpage 'code'
   9  0059              	db 0
   9  001A              @HCCINIT_buff_text .section 'data'
   9  001A              	db 0
   9  005A              @ROMDATA_BASE .section inpage 'code'
   9  005A              	db 0
   9  001B              @HCCINIT_buff_text .section 'data'
   9  001B              	db 0
   9  005A              @ROMDATA_BASE .section inpage 'code'
   9  005A              	db 0
   9  001C              @HCCINIT_buff_text .section 'data'
   9  001C              	db 0
   9  005B              @ROMDATA_BASE .section inpage 'code'
   9  005B              	db 0
   9  001D              @HCCINIT_buff_text .section 'data'
   9  001D              	db 0
   9  005B              @ROMDATA_BASE .section inpage 'code'
   9  005B              	db 0
   9  001E              @HCCINIT_buff_text .section 'data'
   9  001E              	db 0
   9  005C              @ROMDATA_BASE .section inpage 'code'
   9  005C              	db 0
   9  001F              @HCCINIT_buff_text .section 'data'
   9  001F              	db 0
   9  005C              @ROMDATA_BASE .section inpage 'code'
   9  005C              	db 0
   9  0020              @HCCINIT_buff_text .section 'data'
   9  0020              	db 0
   9  005D              @ROMDATA_BASE .section inpage 'code'
   9  005D              	db 0
   9  0021              @HCCINIT_buff_text .section 'data'
   9  0021              	db 0
   9  005D              @ROMDATA_BASE .section inpage 'code'
   9  005D              	db 0
   9  0022              @HCCINIT_buff_text .section 'data'
文件：main.c       编译器版本 HGASM 0202 页次57

   9  0022              	db 0
   9  005E              @ROMDATA_BASE .section inpage 'code'
   9  005E              	db 0
   9  0023              @HCCINIT_buff_text .section 'data'
   9  0023              	db 0
   9  005E              @ROMDATA_BASE .section inpage 'code'
   9  005E              	db 0
   9  0024              @HCCINIT_buff_text .section 'data'
   9  0024              	db 0
   9  005F              @ROMDATA_BASE .section inpage 'code'
   9  005F              	db 0
   9  0025              @HCCINIT_buff_text .section 'data'
   9  0025              	db 0
   9  005F              @ROMDATA_BASE .section inpage 'code'
   9  005F              	db 0
   9  0026              @HCCINIT_buff_text .section 'data'
   9  0026              	db 0
   9  0060              @ROMDATA_BASE .section inpage 'code'
   9  0060              	db 0
   9  0027              @HCCINIT_buff_text .section 'data'
   9  0027              	db 0
   9  0060              @ROMDATA_BASE .section inpage 'code'
   9  0060              	db 0
   9  0028              @HCCINIT_buff_text .section 'data'
   9  0028              	db 0
   9  0061              @ROMDATA_BASE .section inpage 'code'
   9  0061              	db 0
   9  0029              @HCCINIT_buff_text .section 'data'
   9  0029              	db 0
   9  0061              @ROMDATA_BASE .section inpage 'code'
   9  0061              	db 0
   9  002A              @HCCINIT_buff_text .section 'data'
   9  002A              	db 0
   9  0062              @ROMDATA_BASE .section inpage 'code'
   9  0062              	db 0
   9  002B              @HCCINIT_buff_text .section 'data'
   9  002B              	db 0
   9  0062              @ROMDATA_BASE .section inpage 'code'
   9  0062              	db 0
   9  002C              @HCCINIT_buff_text .section 'data'
   9  002C              	db 0
   9  0063              @ROMDATA_BASE .section inpage 'code'
   9  0063              	db 0
   9  002D              @HCCINIT_buff_text .section 'data'
   9  002D              	db 0
   9  0063              @ROMDATA_BASE .section inpage 'code'
   9  0063              	db 0
   9  002E              @HCCINIT_buff_text .section 'data'
   9  002E              	db 0
   9  0064              @ROMDATA_BASE .section inpage 'code'
   9  0064              	db 0
   9  002F              @HCCINIT_buff_text .section 'data'
   9  002F              	db 0
   9  0064              @ROMDATA_BASE .section inpage 'code'
   9  0064              	db 0
   9  0030              @HCCINIT_buff_text .section 'data'
   9  0030              	db 0
   9  0065              @ROMDATA_BASE .section inpage 'code'
   9  0065              	db 0
   9  0031              @HCCINIT_buff_text .section 'data'
文件：main.c       编译器版本 HGASM 0202 页次58

   9  0031              	db 0
   9  0065              @ROMDATA_BASE .section inpage 'code'
   9  0065              	db 0
   9  0032              @HCCINIT_buff_text .section 'data'
   9  0032              public _Bluetooth
   8  0032              #line 8 "c:\users\林斐\desktop\11.机械臂\main.c"
   8  0000              @HCCINIT_Bluetooth .section 'data'
   8  0000              _Bluetooth label byte
   8  0000              #pragma debug variable 7 1 _Bluetooth "Bluetooth"
   8  0000              	db 0
   8  0066              @ROMDATA_BASE .section inpage 'code'
   8  0066              	db 0
   8  0001              @HCCINIT_Bluetooth .section 'data'
   8  0001              #pragma debug struct_end
   8  0001              #pragma debug struct_end
   8  0001              #pragma debug union_end
   8  0001              #pragma debug union_end
   8  0001              #pragma debug variable 47 1 ___intc0 "__intc0" 1
   8  0001              #pragma debug struct_end
   8  0001              #pragma debug struct_end
   8  0001              #pragma debug union_end
   8  0001              #pragma debug union_end
   8  0001              #pragma debug variable 49 1 ___ph "__ph" 1
   8  0001              #pragma debug struct_end
   8  0001              #pragma debug struct_end
   8  0001              #pragma debug union_end
   8  0001              #pragma debug union_end
   8  0001              #pragma debug variable 51 1 ___mfi4 "__mfi4" 1
   8  0001              #pragma debug struct_end
   8  0001              #pragma debug struct_end
   8  0001              #pragma debug union_end
   8  0001              #pragma debug union_end
   8  0001              #pragma debug variable 53 1 ___mfi5 "__mfi5" 1
   8  0001              #pragma debug struct_end
   8  0001              #pragma debug struct_end
   8  0001              #pragma debug union_end
   8  0001              #pragma debug union_end
   8  0001              #pragma debug variable 55 1 ___ptm0c0 "__ptm0c0" 1
   8  0001              #pragma debug struct_end
   8  0001              #pragma debug struct_end
   8  0001              #pragma debug union_end
   8  0001              #pragma debug union_end
   8  0001              #pragma debug variable 57 1 ___stm0c0 "__stm0c0" 1
   8  0001              extern r1:byte
   8  0001              extern r2:byte
   8  0001              extern r3:byte
   8  0001              extern r4:byte
   8  0001              extern r5:byte
   8  0001              extern r6:byte
   8  0001              extern r7:byte
  26  0001              #line 26 "c:\users\林斐\desktop\11.机械臂\main.c"
  26  0000              @code .section at 0 'code'
  26  0000  1F0B        	clr bp
  26  0001  2800     R  	jmp _main_startup1
  26  0002              
  26  0002              extern _get_buff_2:byte
  26  0002              extern _get_buff:near
  26  0002              extern _send_buff_2:byte
  26  0002              extern _send_buff:near
  26  0002              extern _get_buff1_2:byte
文件：main.c       编译器版本 HGASM 0202 页次59

  26  0002              extern _get_buff1:near
  26  0002              extern _send_buff1_2:byte
  26  0002              extern _send_buff1:near
  26  0002              extern _PWM_Change_0_2:byte
  26  0002              extern _PWM_Change_0:near
  26  0002              extern _PWM_Change_1_2:byte
  26  0002              extern _PWM_Change_1:near
  26  0002              extern _getFIFOCount:near
  26  0002              extern _i2cread_2:byte
  26  0002              extern _i2cread:near
  26  0002              extern _writeBit_2:byte
  26  0002              extern _writeBit:near
  26  0002              extern _readdmp_2:byte
  26  0002              extern _readdmp:near
  26  0002              extern _builtin_holtek_mant1:byte
  26  0002              extern _builtin_holtek_mant12p:byte
  26  0002              extern _builtin_holtek_ltof:near
  26  0002              extern _builtin_holtek_mant2:byte
  26  0002              extern _builtin_holtek_ftmul:near
  26  0002              extern _builtin_holtek_ftadd:near
  26  0002              extern _asin_2:byte
  26  0002              extern _asin:near
  26  0002              extern _builtin_holtek_dtmul:near
  26  0002              extern _builtin_holtek_ftsub:near
  26  0002              extern _atan2_2:byte
  26  0002              extern _atan2:near
  26  0002              extern _Float2String_2:byte
  26  0002              extern _Float2String:near
  26  0002              extern _delay_ms_2:byte
  26  0002              extern _delay_ms:near
  26  0002              extern _PWM_Change_2_2:byte
  26  0002              extern _PWM_Change_2:near
  26  0002              extern _PWM_Change_3_2:byte
  26  0002              extern _PWM_Change_3:near
  26  0002              extern _Int2String_2:byte
  26  0002              extern _Int2String:near
  26  0002              extern _Cls_init:near
  26  0002              
  26  0002              ; 
  26  0002              ; Generated by holtek-gcc v3.19, Wed May 25 14:39:48 2022
  26  0002              ; Rebuild 718
  26  0002              ; end of file


        0 Errors, 0